(dp0
S'f1'
p1
(iumati.UmatiVendDB
VendItem
p2
(dp3
S'loc'
p4
g1
sS'price'
p5
I5
sS'name'
p6
S''
p7
sbsS'f2'
p8
(iumati.UmatiVendDB
VendItem
p9
(dp10
g4
g8
sg5
I5
sg6
g7
sbsS'f3'
p11
(iumati.UmatiVendDB
VendItem
p12
(dp13
g4
g11
sg5
I5
sg6
g7
sbsS'f4'
p14
(iumati.UmatiVendDB
VendItem
p15
(dp16
g4
g14
sg5
I5
sg6
g7
sbsS'f5'
p17
(iumati.UmatiVendDB
VendItem
p18
(dp19
g4
g17
sg5
I5
sg6
g7
sbsS'd9'
p20
(iumati.UmatiVendDB
VendItem
p21
(dp22
g4
g20
sg5
I5
sg6
g7
sbsS'b4'
p23
(iumati.UmatiVendDB
VendItem
p24
(dp25
g4
g23
sg5
I0
sg6
g7
sbsS'b5'
p26
(iumati.UmatiVendDB
VendItem
p27
(dp28
g4
g26
sg5
I0
sg6
g7
sbsS'b1'
p29
(iumati.UmatiVendDB
VendItem
p30
(dp31
g4
g29
sg5
I0
sg6
g7
sbsS'b2'
p32
(iumati.UmatiVendDB
VendItem
p33
(dp34
g4
g32
sg5
I0
sg6
g7
sbsS'b3'
p35
(iumati.UmatiVendDB
VendItem
p36
(dp37
g4
g35
sg5
I0
sg6
g7
sbsS'd6'
p38
(iumati.UmatiVendDB
VendItem
p39
(dp40
g4
g38
sg5
I5
sg6
g7
sbsS'd7'
p41
(iumati.UmatiVendDB
VendItem
p42
(dp43
g4
g41
sg5
I5
sg6
g7
sbsS'd4'
p44
(iumati.UmatiVendDB
VendItem
p45
(dp46
g4
g44
sg5
I5
sg6
g7
sbsS'd5'
p47
(iumati.UmatiVendDB
VendItem
p48
(dp49
g4
g47
sg5
I5
sg6
g7
sbsS'd2'
p50
(iumati.UmatiVendDB
VendItem
p51
(dp52
g4
g50
sg5
I5
sg6
g7
sbsS'd3'
p53
(iumati.UmatiVendDB
VendItem
p54
(dp55
g4
g53
sg5
I5
sg6
g7
sbsS'd1'
p56
(iumati.UmatiVendDB
VendItem
p57
(dp58
g4
g56
sg5
I5
sg6
g7
sbsS'd10'
p59
(iumati.UmatiVendDB
VendItem
p60
(dp61
g4
g59
sg5
I5
sg6
g7
sbsS'e10'
p62
(iumati.UmatiVendDB
VendItem
p63
(dp64
g4
g62
sg5
I5
sg6
g7
sbsS'e5'
p65
(iumati.UmatiVendDB
VendItem
p66
(dp67
g4
g65
sg5
I5
sg6
g7
sbsS'e3'
p68
(iumati.UmatiVendDB
VendItem
p69
(dp70
g4
g68
sg5
I5
sg6
g7
sbsS'd8'
p71
(iumati.UmatiVendDB
VendItem
p72
(dp73
g4
g71
sg5
I5
sg6
g7
sbsS'e2'
p74
(iumati.UmatiVendDB
VendItem
p75
(dp76
g4
g74
sg5
I5
sg6
g7
sbsS'e4'
p77
(iumati.UmatiVendDB
VendItem
p78
(dp79
g4
g77
sg5
I5
sg6
g7
sbsS'a1'
p80
(iumati.UmatiVendDB
VendItem
p81
(dp82
g4
g80
sg5
I0
sg6
g7
sbsS'a3'
p83
(iumati.UmatiVendDB
VendItem
p84
(dp85
g4
g83
sg5
I0
sg6
g7
sbsS'a2'
p86
(iumati.UmatiVendDB
VendItem
p87
(dp88
g4
g86
sg5
I0
sg6
g7
sbsS'a5'
p89
(iumati.UmatiVendDB
VendItem
p90
(dp91
g4
g89
sg5
I0
sg6
g7
sbsS'a4'
p92
(iumati.UmatiVendDB
VendItem
p93
(dp94
g4
g92
sg5
I0
sg6
g7
sbsS'c3'
p95
(iumati.UmatiVendDB
VendItem
p96
(dp97
g4
g95
sg5
I5
sg6
g7
sbsS'c2'
p98
(iumati.UmatiVendDB
VendItem
p99
(dp100
g4
g98
sg5
I5
sg6
g7
sbsS'c1'
p101
(iumati.UmatiVendDB
VendItem
p102
(dp103
g4
g101
sg5
I5
sg6
g7
sbsS'e6'
p104
(iumati.UmatiVendDB
VendItem
p105
(dp106
g4
g104
sg5
I5
sg6
g7
sbsS'e1'
p107
(iumati.UmatiVendDB
VendItem
p108
(dp109
g4
g107
sg5
I5
sg6
g7
sbsS'c5'
p110
(iumati.UmatiVendDB
VendItem
p111
(dp112
g4
g110
sg5
I5
sg6
g7
sbsS'c4'
p113
(iumati.UmatiVendDB
VendItem
p114
(dp115
g4
g113
sg5
I5
sg6
g7
sbsS'e7'
p116
(iumati.UmatiVendDB
VendItem
p117
(dp118
g4
g116
sg5
I5
sg6
g7
sbsS'e9'
p119
(iumati.UmatiVendDB
VendItem
p120
(dp121
g4
g119
sg5
I5
sg6
g7
sbsS'e8'
p122
(iumati.UmatiVendDB
VendItem
p123
(dp124
g4
g122
sg5
I5
sg6
g7
sbs.