(dp0
S'A1C33NBVKOQYKA'
p1
ccopy_reg
_reconstructor
p2
(cumati.UmatiUserDirectory
User
p3
c__builtin__
object
p4
Ntp5
Rp6
(dp7
S'_User__credits'
p8
I0
sS'init_done'
p9
I00
sS'tag'
p10
g1
sS'gold_wrong'
p11
I7
sS'tasks_completed'
p12
(dp13
S'Grading'
p14
(lp15
(S'/4_10.png:norm'
p16
S'4'
p17
F1301726859.0
tp18
a(S'/5_10.png:norm'
p19
S'0'
p20
F1301726859.0
tp21
a(S'/6_10.png:norm'
p22
g20
F1301726859.0
tp23
a(S'/7_10.png:norm'
p24
g20
F1301726859.0
tp25
a(S'/8_10.png:norm'
p26
g20
F1301726859.0
tp27
a(S'/9_10.png:gold'
p28
g17
F1301726859.0
tp29
a(S'/4_13.png:norm'
p30
S'3'
p31
F1301727090.0
tp32
a(S'/5_13.png:norm'
p33
g20
F1301727090.0
tp34
a(S'/6_13.png:norm'
p35
g31
F1301727090.0
tp36
a(S'/7_13.png:norm'
p37
g20
F1301727090.0
tp38
a(S'/8_13.png:norm'
p39
g20
F1301727090.0
tp40
a(S'/9_13.png:gold'
p41
g20
F1301727090.0
tp42
a(S'/1_2.png:norm'
p43
g31
F1301727196.0
tp44
a(S'/2_2.png:norm'
p45
g20
F1301727196.0
tp46
a(S'/3_2.png:norm'
p47
g31
F1301727196.0
tp48
a(S'/4_2.png:norm'
p49
g20
F1301727196.0
tp50
a(S'/5_2.png:norm'
p51
g20
F1301727196.0
tp52
a(S'/6_2.png:norm'
p53
g20
F1301727196.0
tp54
a(S'/7_2.png:norm'
p55
g20
F1301727196.0
tp56
a(S'/8_2.png:norm'
p57
g20
F1301727196.0
tp58
a(S'/9_2.png:gold'
p59
g20
F1301727196.0
tp60
a(S'/1_3.png:norm'
p61
g31
F1301726656.0
tp62
a(S'/2_3.png:norm'
p63
g31
F1301726656.0
tp64
a(S'/3_3.png:norm'
p65
g31
F1301726656.0
tp66
a(S'/4_3.png:norm'
p67
S'1'
p68
F1301726656.0
tp69
a(S'/5_3.png:norm'
p70
g68
F1301726656.0
tp71
a(S'/6_3.png:norm'
p72
g20
F1301726656.0
tp73
a(S'/7_3.png:norm'
p74
g68
F1301726656.0
tp75
a(S'/8_3.png:norm'
p76
g68
F1301726656.0
tp77
a(S'/9_3.png:gold'
p78
S'2'
p79
F1301726656.0
tp80
a(S'/1_4.png:norm'
p81
g20
F1301727314.0
tp82
a(S'/2_4.png:norm'
p83
g20
F1301727314.0
tp84
a(S'/3_4.png:norm'
p85
g20
F1301727314.0
tp86
a(S'/4_4.png:norm'
p87
g20
F1301727314.0
tp88
a(S'/5_4.png:norm'
p89
g20
F1301727314.0
tp90
a(S'/6_4.png:norm'
p91
g68
F1301727314.0
tp92
a(S'/7_4.png:norm'
p93
g20
F1301727314.0
tp94
a(S'/8_4.png:norm'
p95
g20
F1301727314.0
tp96
a(S'/9_4.png:gold'
p97
g20
F1301727314.0
tp98
a(S'/1_5.png:norm'
p99
g20
F1301726734.0
tp100
a(S'/2_5.png:norm'
p101
g68
F1301726734.0
tp102
a(S'/3_5.png:norm'
p103
g20
F1301726734.0
tp104
a(S'/4_5.png:norm'
p105
g20
F1301726734.0
tp106
a(S'/5_5.png:norm'
p107
g20
F1301726734.0
tp108
a(S'/6_5.png:norm'
p109
g68
F1301726734.0
tp110
a(S'/7_5.png:norm'
p111
g79
F1301726734.0
tp112
a(S'/8_5.png:norm'
p113
g79
F1301726734.0
tp114
a(S'/9_5.png:gold'
p115
g20
F1301726734.0
tp116
a(S'/1_6.png:norm'
p117
g17
F1301726803.0
tp118
a(S'/2_6.png:norm'
p119
g17
F1301726803.0
tp120
a(S'/3_6.png:norm'
p121
g17
F1301726803.0
tp122
a(S'/4_6.png:norm'
p123
g20
F1301726803.0
tp124
a(S'/5_6.png:norm'
p125
g20
F1301726803.0
tp126
a(S'/6_6.png:norm'
p127
g20
F1301726803.0
tp128
a(S'/7_6.png:norm'
p129
g20
F1301726803.0
tp130
a(S'/8_6.png:norm'
p131
g20
F1301726803.0
tp132
a(S'/9_6.png:gold'
p133
g20
F1301726803.0
tp134
a(S'/1_9.png:norm'
p135
g17
F1301726769.0
tp136
a(S'/2_9.png:norm'
p137
g17
F1301726769.0
tp138
a(S'/3_9.png:norm'
p139
g20
F1301726769.0
tp140
a(S'/4_9.png:norm'
p141
g20
F1301726769.0
tp142
a(S'/5_9.png:norm'
p143
g20
F1301726769.0
tp144
a(S'/6_9.png:norm'
p145
g20
F1301726769.0
tp146
a(S'/7_9.png:norm'
p147
g20
F1301726769.0
tp148
a(S'/8_9.png:norm'
p149
g20
F1301726769.0
tp150
a(S'/9_9.png:gold'
p151
g20
F1301726769.0
tp152
assbsS'A1SDU3LTLS2F0D'
p153
g2
(g3
g4
Ntp154
Rp155
(dp156
g8
I0
sg9
I00
sg10
g153
sg11
I1
sg12
(dp157
g14
(lp158
(S'/4_12.png:norm'
p159
g68
F1301796783.0
tp160
a(S'/5_12.png:norm'
p161
g79
F1301796783.0
tp162
a(S'/6_12.png:norm'
p163
g17
F1301796783.0
tp164
a(S'/7_12.png:norm'
p165
g31
F1301796783.0
tp166
a(S'/8_12.png:norm'
p167
g31
F1301796783.0
tp168
a(S'/9_12.png:gold'
p169
g79
F1301796783.0
tp170
assbsS'A21Y5BT1IIOYZI'
p171
g2
(g3
g4
Ntp172
Rp173
(dp174
g8
I0
sg9
I00
sg10
g171
sg11
I1
sg12
(dp175
g14
(lp176
(S'/1_14.png:norm'
p177
S'7'
p178
F1301899282.0
tp179
a(S'/2_14.png:norm'
p180
S'8'
p181
F1301899282.0
tp182
a(S'/3_14.png:norm'
p183
S'9'
p184
F1301899282.0
tp185
a(S'/4_14.png:norm'
p186
S'5'
p187
F1301899282.0
tp188
a(S'/5_14.png:norm'
p189
g187
F1301899282.0
tp190
a(S'/6_14.png:norm'
p191
g187
F1301899282.0
tp192
a(S'/7_14.png:norm'
p193
g187
F1301899282.0
tp194
a(S'/8_14.png:norm'
p195
g17
F1301899282.0
tp196
a(S'/9_14.png:gold'
p197
g178
F1301899282.0
tp198
assbsS'A28GDOFD28LFYO'
p199
g2
(g3
g4
Ntp200
Rp201
(dp202
g8
I0
sg9
I00
sg10
g199
sg11
I0
sg12
(dp203
g14
(lp204
(S'/4_11.png:norm'
p205
g20
F1301758334.0
tp206
a(S'/5_11.png:norm'
p207
g31
F1301758334.0
tp208
a(S'/6_11.png:norm'
p209
g17
F1301758334.0
tp210
a(S'/7_11.png:norm'
p211
g79
F1301758334.0
tp212
a(S'/8_11.png:norm'
p213
g31
F1301758334.0
tp214
a(S'/9_11.png:gold'
p215
g17
F1301758334.0
tp216
assbsS'AX3IND8VYFGIA'
p217
g2
(g3
g4
Ntp218
Rp219
(dp220
g8
I0
sg9
I00
sg10
g217
sg11
I0
sg12
(dp221
g14
(lp222
(S'/4_13.png:norm'
p223
g20
F1301773589.0
tp224
a(S'/5_13.png:norm'
p225
g79
F1301773589.0
tp226
a(S'/6_13.png:norm'
p227
g79
F1301773589.0
tp228
a(S'/7_13.png:norm'
p229
g79
F1301773589.0
tp230
a(S'/8_13.png:norm'
p231
g31
F1301773589.0
tp232
a(S'/9_13.png:gold'
p233
g17
F1301773589.0
tp234
assbsS'A37KETH3SJLHAA'
p235
g2
(g3
g4
Ntp236
Rp237
(dp238
g8
I0
sg9
I00
sg10
g235
sg11
I11
sg12
(dp239
g14
(lp240
(S'/4_10.png:norm'
p241
g17
F1301729033.0
tp242
a(S'/5_10.png:norm'
p243
g17
F1301729033.0
tp244
a(S'/6_10.png:norm'
p245
g17
F1301729033.0
tp246
a(S'/7_10.png:norm'
p247
g17
F1301729033.0
tp248
a(S'/8_10.png:norm'
p249
g17
F1301729033.0
tp250
a(S'/9_10.png:gold'
p251
g17
F1301729033.0
tp252
a(S'/4_11.png:norm'
p253
g20
F1301729963.0
tp254
a(S'/5_11.png:norm'
p255
g20
F1301729963.0
tp256
a(S'/6_11.png:norm'
p257
g20
F1301729963.0
tp258
a(S'/7_11.png:norm'
p259
g20
F1301729963.0
tp260
a(S'/8_11.png:norm'
p261
g20
F1301729963.0
tp262
a(S'/9_11.png:gold'
p263
g20
F1301729963.0
tp264
a(S'/4_12.png:norm'
p265
g20
F1301729738.0
tp266
a(S'/5_12.png:norm'
p267
g20
F1301729738.0
tp268
a(S'/6_12.png:norm'
p269
g20
F1301729738.0
tp270
a(S'/7_12.png:norm'
p271
g20
F1301729738.0
tp272
a(S'/8_12.png:norm'
p273
g20
F1301729738.0
tp274
a(S'/9_12.png:gold'
p275
g20
F1301729738.0
tp276
a(S'/4_13.png:norm'
p277
g79
F1301729620.0
tp278
a(S'/5_13.png:norm'
p279
g79
F1301729620.0
tp280
a(S'/6_13.png:norm'
p281
g79
F1301729620.0
tp282
a(S'/7_13.png:norm'
p283
g79
F1301729620.0
tp284
a(S'/8_13.png:norm'
p285
g79
F1301729620.0
tp286
a(S'/9_13.png:gold'
p287
g68
F1301729620.0
tp288
a(S'/1_1.png:norm'
p289
g20
F1301729159.0
tp290
a(S'/2_1.png:norm'
p291
g20
F1301729159.0
tp292
a(S'/3_1.png:norm'
p293
g20
F1301729159.0
tp294
a(S'/4_1.png:norm'
p295
g20
F1301729159.0
tp296
a(S'/5_1.png:norm'
p297
g20
F1301729159.0
tp298
a(S'/6_1.png:norm'
p299
g20
F1301729159.0
tp300
a(S'/7_1.png:norm'
p301
g20
F1301729159.0
tp302
a(S'/8_1.png:norm'
p303
g20
F1301729159.0
tp304
a(S'/9_1.png:gold'
p305
g20
F1301729159.0
tp306
a(S'/1_2.png:norm'
p307
g79
F1301731072.0
tp308
a(S'/2_2.png:norm'
p309
g79
F1301731072.0
tp310
a(S'/3_2.png:norm'
p311
g79
F1301731072.0
tp312
a(S'/4_2.png:norm'
p313
g79
F1301731072.0
tp314
a(S'/5_2.png:norm'
p315
g79
F1301731072.0
tp316
a(S'/6_2.png:norm'
p317
g79
F1301731072.0
tp318
a(S'/7_2.png:norm'
p319
g79
F1301731072.0
tp320
a(S'/8_2.png:norm'
p321
g79
F1301731072.0
tp322
a(S'/9_2.png:gold'
p323
g79
F1301731072.0
tp324
a(S'/1_3.png:norm'
p325
g79
F1301728869.0
tp326
a(S'/2_3.png:norm'
p327
g79
F1301728869.0
tp328
a(S'/3_3.png:norm'
p329
g79
F1301728869.0
tp330
a(S'/4_3.png:norm'
p331
g79
F1301728869.0
tp332
a(S'/5_3.png:norm'
p333
g68
F1301728869.0
tp334
a(S'/6_3.png:norm'
p335
g79
F1301728869.0
tp336
a(S'/7_3.png:norm'
p337
g79
F1301728869.0
tp338
a(S'/8_3.png:norm'
p339
g79
F1301728869.0
tp340
a(S'/9_3.png:gold'
p341
g79
F1301728869.0
tp342
a(S'/1_4.png:norm'
p343
g79
F1301728339.0
tp344
a(S'/2_4.png:norm'
p345
g20
F1301728339.0
tp346
a(S'/3_4.png:norm'
p347
g79
F1301728339.0
tp348
a(S'/4_4.png:norm'
p349
g79
F1301728339.0
tp350
a(S'/5_4.png:norm'
p351
g79
F1301728339.0
tp352
a(S'/6_4.png:norm'
p353
g20
F1301728339.0
tp354
a(S'/7_4.png:norm'
p355
g79
F1301728339.0
tp356
a(S'/8_4.png:norm'
p357
g79
F1301728339.0
tp358
a(S'/9_4.png:gold'
p359
g79
F1301728339.0
tp360
a(S'/1_5.png:norm'
p361
g68
F1301729389.0
tp362
a(S'/2_5.png:norm'
p363
g68
F1301729389.0
tp364
a(S'/3_5.png:norm'
p365
g68
F1301729389.0
tp366
a(S'/4_5.png:norm'
p367
g68
F1301729389.0
tp368
a(S'/5_5.png:norm'
p369
g68
F1301729389.0
tp370
a(S'/6_5.png:norm'
p371
g68
F1301729389.0
tp372
a(S'/7_5.png:norm'
p373
g68
F1301729389.0
tp374
a(S'/8_5.png:norm'
p375
g68
F1301729389.0
tp376
a(S'/9_5.png:gold'
p377
g68
F1301729389.0
tp378
a(S'/1_6.png:norm'
p379
g31
F1301730359.0
tp380
a(S'/2_6.png:norm'
p381
g31
F1301730359.0
tp382
a(S'/3_6.png:norm'
p383
g31
F1301730359.0
tp384
a(S'/4_6.png:norm'
p385
g31
F1301730359.0
tp386
a(S'/5_6.png:norm'
p387
g31
F1301730359.0
tp388
a(S'/6_6.png:norm'
p389
g31
F1301730359.0
tp390
a(S'/7_6.png:norm'
p391
g31
F1301730359.0
tp392
a(S'/8_6.png:norm'
p393
g31
F1301730359.0
tp394
a(S'/9_6.png:gold'
p395
g31
F1301730359.0
tp396
a(S'/1_7.png:norm'
p397
g17
F1301728004.0
tp398
a(S'/2_7.png:norm'
p399
g17
F1301728004.0
tp400
a(S'/3_7.png:norm'
p401
g17
F1301728004.0
tp402
a(S'/4_7.png:norm'
p403
g17
F1301728004.0
tp404
a(S'/5_7.png:norm'
p405
g17
F1301728004.0
tp406
a(S'/6_7.png:norm'
p407
g17
F1301728004.0
tp408
a(S'/7_7.png:norm'
p409
g17
F1301728004.0
tp410
a(S'/8_7.png:norm'
p411
g17
F1301728004.0
tp412
a(S'/9_7.png:gold'
p413
g17
F1301728004.0
tp414
a(S'/1_8.png:norm'
p415
g20
F1301729711.0
tp416
a(S'/2_8.png:norm'
p417
g20
F1301729711.0
tp418
a(S'/3_8.png:norm'
p419
g20
F1301729711.0
tp420
a(S'/4_8.png:norm'
p421
g20
F1301729711.0
tp422
a(S'/5_8.png:norm'
p423
g20
F1301729711.0
tp424
a(S'/6_8.png:norm'
p425
g20
F1301729711.0
tp426
a(S'/7_8.png:norm'
p427
g20
F1301729711.0
tp428
a(S'/8_8.png:norm'
p429
g20
F1301729711.0
tp430
a(S'/9_8.png:gold'
p431
g20
F1301729711.0
tp432
a(S'/1_9.png:norm'
p433
g31
F1301727705.0
tp434
a(S'/2_9.png:norm'
p435
g31
F1301727705.0
tp436
a(S'/3_9.png:norm'
p437
g31
F1301727705.0
tp438
a(S'/4_9.png:norm'
p439
g31
F1301727705.0
tp440
a(S'/5_9.png:norm'
p441
g31
F1301727705.0
tp442
a(S'/6_9.png:norm'
p443
g31
F1301727705.0
tp444
a(S'/7_9.png:norm'
p445
g31
F1301727705.0
tp446
a(S'/8_9.png:norm'
p447
g31
F1301727705.0
tp448
a(S'/9_9.png:gold'
p449
g31
F1301727705.0
tp450
assbsS'A1XWBT4OD2AEH'
p451
g2
(g3
g4
Ntp452
Rp453
(dp454
g8
I0
sg9
I00
sg10
g451
sg11
I6
sg12
(dp455
g14
(lp456
(S'/4_10.png:norm'
p457
g79
F1301761449.0
tp458
a(S'/5_10.png:norm'
p459
g20
F1301761449.0
tp460
a(S'/6_10.png:norm'
p461
g79
F1301761449.0
tp462
a(S'/7_10.png:norm'
p463
g20
F1301761449.0
tp464
a(S'/8_10.png:norm'
p465
g20
F1301761449.0
tp466
a(S'/9_10.png:gold'
p467
g20
F1301761449.0
tp468
a(S'/4_11.png:norm'
p469
g20
F1301761141.0
tp470
a(S'/5_11.png:norm'
p471
g20
F1301761141.0
tp472
a(S'/6_11.png:norm'
p473
g20
F1301761141.0
tp474
a(S'/7_11.png:norm'
p475
g68
F1301761141.0
tp476
a(S'/8_11.png:norm'
p477
g20
F1301761141.0
tp478
a(S'/9_11.png:gold'
p479
g20
F1301761141.0
tp480
a(S'/1_1.png:norm'
p481
g20
F1301761371.0
tp482
a(S'/2_1.png:norm'
p483
g20
F1301761371.0
tp484
a(S'/3_1.png:norm'
p485
g20
F1301761371.0
tp486
a(S'/4_1.png:norm'
p487
g20
F1301761371.0
tp488
a(S'/5_1.png:norm'
p489
g20
F1301761371.0
tp490
a(S'/6_1.png:norm'
p491
g20
F1301761371.0
tp492
a(S'/7_1.png:norm'
p493
g20
F1301761371.0
tp494
a(S'/8_1.png:norm'
p495
g20
F1301761371.0
tp496
a(S'/9_1.png:gold'
p497
g20
F1301761371.0
tp498
a(S'/1_2.png:norm'
p499
g20
F1301761410.0
tp500
a(S'/2_2.png:norm'
p501
g20
F1301761410.0
tp502
a(S'/3_2.png:norm'
p503
g20
F1301761410.0
tp504
a(S'/4_2.png:norm'
p505
g20
F1301761410.0
tp506
a(S'/5_2.png:norm'
p507
g20
F1301761410.0
tp508
a(S'/6_2.png:norm'
p509
g20
F1301761410.0
tp510
a(S'/7_2.png:norm'
p511
g20
F1301761410.0
tp512
a(S'/8_2.png:norm'
p513
g20
F1301761410.0
tp514
a(S'/9_2.png:gold'
p515
g20
F1301761410.0
tp516
a(S'/1_3.png:norm'
p517
g68
F1301761239.0
tp518
a(S'/2_3.png:norm'
p519
g68
F1301761239.0
tp520
a(S'/3_3.png:norm'
p521
g68
F1301761239.0
tp522
a(S'/4_3.png:norm'
p523
g68
F1301761239.0
tp524
a(S'/5_3.png:norm'
p525
g68
F1301761239.0
tp526
a(S'/6_3.png:norm'
p527
g68
F1301761239.0
tp528
a(S'/7_3.png:norm'
p529
g68
F1301761239.0
tp530
a(S'/8_3.png:norm'
p531
g68
F1301761239.0
tp532
a(S'/9_3.png:gold'
p533
g20
F1301761239.0
tp534
a(S'/1_4.png:norm'
p535
g20
F1301761305.0
tp536
a(S'/2_4.png:norm'
p537
g20
F1301761305.0
tp538
a(S'/3_4.png:norm'
p539
g20
F1301761305.0
tp540
a(S'/4_4.png:norm'
p541
g20
F1301761305.0
tp542
a(S'/5_4.png:norm'
p543
g20
F1301761305.0
tp544
a(S'/6_4.png:norm'
p545
g20
F1301761305.0
tp546
a(S'/7_4.png:norm'
p547
g20
F1301761305.0
tp548
a(S'/8_4.png:norm'
p549
g20
F1301761305.0
tp550
a(S'/9_4.png:gold'
p551
g20
F1301761305.0
tp552
assbsS'APFMN02BVIHH7'
p553
g2
(g3
g4
Ntp554
Rp555
(dp556
g8
I0
sg9
I00
sg10
g553
sg11
I3
sg12
(dp557
g14
(lp558
(S'/4_10.png:norm'
p559
g31
F1301727740.0
tp560
a(S'/5_10.png:norm'
p561
g31
F1301727740.0
tp562
a(S'/6_10.png:norm'
p563
g31
F1301727740.0
tp564
a(S'/7_10.png:norm'
p565
g20
F1301727740.0
tp566
a(S'/8_10.png:norm'
p567
g20
F1301727740.0
tp568
a(S'/9_10.png:gold'
p569
g31
F1301727740.0
tp570
a(S'/4_11.png:norm'
p571
g20
F1301729680.0
tp572
a(S'/5_11.png:norm'
p573
g68
F1301729680.0
tp574
a(S'/6_11.png:norm'
p575
g31
F1301729680.0
tp576
a(S'/7_11.png:norm'
p577
g20
F1301729680.0
tp578
a(S'/8_11.png:norm'
p579
g20
F1301729680.0
tp580
a(S'/9_11.png:gold'
p581
g31
F1301729680.0
tp582
a(S'/1_3.png:norm'
p583
g68
F1301730725.0
tp584
a(S'/2_3.png:norm'
p585
g20
F1301730725.0
tp586
a(S'/3_3.png:norm'
p587
g68
F1301730725.0
tp588
a(S'/4_3.png:norm'
p589
g20
F1301730725.0
tp590
a(S'/5_3.png:norm'
p591
g17
F1301730725.0
tp592
a(S'/6_3.png:norm'
p593
g17
F1301730725.0
tp594
a(S'/7_3.png:norm'
p595
g20
F1301730725.0
tp596
a(S'/8_3.png:norm'
p597
g68
F1301730725.0
tp598
a(S'/9_3.png:gold'
p599
g17
F1301730725.0
tp600
a(S'/1_5.png:norm'
p601
g20
F1301727556.0
tp602
a(S'/2_5.png:norm'
p603
g68
F1301727556.0
tp604
a(S'/3_5.png:norm'
p605
g31
F1301727556.0
tp606
a(S'/4_5.png:norm'
p607
g79
F1301727556.0
tp608
a(S'/5_5.png:norm'
p609
g20
F1301727556.0
tp610
a(S'/6_5.png:norm'
p611
g20
F1301727556.0
tp612
a(S'/7_5.png:norm'
p613
g31
F1301727556.0
tp614
a(S'/8_5.png:norm'
p615
g68
F1301727556.0
tp616
a(S'/9_5.png:gold'
p617
g20
F1301727556.0
tp618
a(S'/1_6.png:norm'
p619
g68
F1301728134.0
tp620
a(S'/2_6.png:norm'
p621
g20
F1301728134.0
tp622
a(S'/3_6.png:norm'
p623
g17
F1301728134.0
tp624
a(S'/4_6.png:norm'
p625
g20
F1301728134.0
tp626
a(S'/5_6.png:norm'
p627
g20
F1301728134.0
tp628
a(S'/6_6.png:norm'
p629
g17
F1301728134.0
tp630
a(S'/7_6.png:norm'
p631
g20
F1301728134.0
tp632
a(S'/8_6.png:norm'
p633
g20
F1301728134.0
tp634
a(S'/9_6.png:gold'
p635
g17
F1301728134.0
tp636
a(S'/1_7.png:norm'
p637
g68
F1301727931.0
tp638
a(S'/2_7.png:norm'
p639
g68
F1301727931.0
tp640
a(S'/3_7.png:norm'
p641
g17
F1301727931.0
tp642
a(S'/4_7.png:norm'
p643
g20
F1301727931.0
tp644
a(S'/5_7.png:norm'
p645
g68
F1301727931.0
tp646
a(S'/6_7.png:norm'
p647
g17
F1301727931.0
tp648
a(S'/7_7.png:norm'
p649
g20
F1301727931.0
tp650
a(S'/8_7.png:norm'
p651
g20
F1301727931.0
tp652
a(S'/9_7.png:gold'
p653
g17
F1301727931.0
tp654
a(S'/1_9.png:norm'
p655
g68
F1301728467.0
tp656
a(S'/2_9.png:norm'
p657
g20
F1301728467.0
tp658
a(S'/3_9.png:norm'
p659
g17
F1301728467.0
tp660
a(S'/4_9.png:norm'
p661
g20
F1301728467.0
tp662
a(S'/5_9.png:norm'
p663
g20
F1301728467.0
tp664
a(S'/6_9.png:norm'
p665
g17
F1301728467.0
tp666
a(S'/7_9.png:norm'
p667
g20
F1301728467.0
tp668
a(S'/8_9.png:norm'
p669
g20
F1301728467.0
tp670
a(S'/9_9.png:gold'
p671
g17
F1301728467.0
tp672
assbsS'A3FXH3WEZH28PH'
p673
g2
(g3
g4
Ntp674
Rp675
(dp676
g8
I0
sg9
I00
sg10
g673
sg11
I0
sg12
(dp677
g14
(lp678
(S'/4_12.png:norm'
p679
g20
F1301751182.0
tp680
a(S'/5_12.png:norm'
p681
g20
F1301751182.0
tp682
a(S'/6_12.png:norm'
p683
g17
F1301751182.0
tp684
a(S'/7_12.png:norm'
p685
g17
F1301751182.0
tp686
a(S'/8_12.png:norm'
p687
g20
F1301751182.0
tp688
a(S'/9_12.png:gold'
p689
g17
F1301751182.0
tp690
a(S'/1_3.png:norm'
p691
g79
F1301751349.0
tp692
a(S'/2_3.png:norm'
p693
g20
F1301751349.0
tp694
a(S'/3_3.png:norm'
p695
g20
F1301751349.0
tp696
a(S'/4_3.png:norm'
p697
g79
F1301751349.0
tp698
a(S'/5_3.png:norm'
p699
g17
F1301751349.0
tp700
a(S'/6_3.png:norm'
p701
g17
F1301751349.0
tp702
a(S'/7_3.png:norm'
p703
g20
F1301751349.0
tp704
a(S'/8_3.png:norm'
p705
g68
F1301751349.0
tp706
a(S'/9_3.png:gold'
p707
g17
F1301751349.0
tp708
assbsS'A7EWD6LBQSNZM'
p709
g2
(g3
g4
Ntp710
Rp711
(dp712
g8
I0
sg9
I00
sg10
g709
sg11
I2
sg12
(dp713
g14
(lp714
(S'/1_2.png:norm'
p715
g79
F1301737533.0
tp716
a(S'/2_2.png:norm'
p717
g31
F1301737533.0
tp718
a(S'/3_2.png:norm'
p719
g31
F1301737533.0
tp720
a(S'/4_2.png:norm'
p721
g79
F1301737533.0
tp722
a(S'/5_2.png:norm'
p723
g79
F1301737533.0
tp724
a(S'/6_2.png:norm'
p725
g79
F1301737533.0
tp726
a(S'/7_2.png:norm'
p727
g20
F1301737533.0
tp728
a(S'/8_2.png:norm'
p729
g79
F1301737533.0
tp730
a(S'/9_2.png:gold'
p731
g79
F1301737533.0
tp732
a(S'/1_5.png:norm'
p733
g68
F1301737582.0
tp734
a(S'/2_5.png:norm'
p735
g68
F1301737582.0
tp736
a(S'/3_5.png:norm'
p737
g68
F1301737582.0
tp738
a(S'/4_5.png:norm'
p739
g68
F1301737582.0
tp740
a(S'/5_5.png:norm'
p741
g68
F1301737582.0
tp742
a(S'/6_5.png:norm'
p743
g20
F1301737582.0
tp744
a(S'/7_5.png:norm'
p745
g68
F1301737582.0
tp746
a(S'/8_5.png:norm'
p747
g68
F1301737582.0
tp748
a(S'/9_5.png:gold'
p749
g68
F1301737582.0
tp750
assbsS'A3UBN46W1BWFHV'
p751
g2
(g3
g4
Ntp752
Rp753
(dp754
g8
I0
sg9
I00
sg10
g751
sg11
I2
sg12
(dp755
g14
(lp756
(S'/4_10.png:norm'
p757
g17
F1301806322.0
tp758
a(S'/5_10.png:norm'
p759
g20
F1301806322.0
tp760
a(S'/6_10.png:norm'
p761
g20
F1301806322.0
tp762
a(S'/7_10.png:norm'
p763
g20
F1301806322.0
tp764
a(S'/8_10.png:norm'
p765
g20
F1301806322.0
tp766
a(S'/9_10.png:gold'
p767
g20
F1301806322.0
tp768
a(S'/4_12.png:norm'
p769
g20
F1301806185.0
tp770
a(S'/5_12.png:norm'
p771
g20
F1301806185.0
tp772
a(S'/6_12.png:norm'
p773
g20
F1301806185.0
tp774
a(S'/7_12.png:norm'
p775
g68
F1301806185.0
tp776
a(S'/8_12.png:norm'
p777
g68
F1301806185.0
tp778
a(S'/9_12.png:gold'
p779
g20
F1301806185.0
tp780
assbsS'AUUYJT0NNEK11'
p781
g2
(g3
g4
Ntp782
Rp783
(dp784
g8
I0
sg9
I00
sg10
g781
sg11
I1
sg12
(dp785
g14
(lp786
(S'/1_8.png:norm'
p787
g17
F1301807959.0
tp788
a(S'/2_8.png:norm'
p789
g20
F1301807959.0
tp790
a(S'/3_8.png:norm'
p791
g68
F1301807959.0
tp792
a(S'/4_8.png:norm'
p793
g31
F1301807959.0
tp794
a(S'/5_8.png:norm'
p795
g20
F1301807959.0
tp796
a(S'/6_8.png:norm'
p797
g20
F1301807959.0
tp798
a(S'/7_8.png:norm'
p799
g20
F1301807959.0
tp800
a(S'/8_8.png:norm'
p801
g20
F1301807959.0
tp802
a(S'/9_8.png:gold'
p803
g20
F1301807959.0
tp804
assbsS'A24T72RPOUTJFT'
p805
g2
(g3
g4
Ntp806
Rp807
(dp808
g8
I0
sg9
I00
sg10
g805
sg11
I0
sg12
(dp809
g14
(lp810
(S'/1_4.png:norm'
p811
g17
F1301747980.0
tp812
a(S'/2_4.png:norm'
p813
g68
F1301747980.0
tp814
a(S'/3_4.png:norm'
p815
g20
F1301747980.0
tp816
a(S'/4_4.png:norm'
p817
g17
F1301747980.0
tp818
a(S'/5_4.png:norm'
p819
g31
F1301747980.0
tp820
a(S'/6_4.png:norm'
p821
g17
F1301747980.0
tp822
a(S'/7_4.png:norm'
p823
g31
F1301747980.0
tp824
a(S'/8_4.png:norm'
p825
g31
F1301747980.0
tp826
a(S'/9_4.png:gold'
p827
g17
F1301747980.0
tp828
a(S'/1_6.png:norm'
p829
g79
F1301747766.0
tp830
a(S'/2_6.png:norm'
p831
g20
F1301747766.0
tp832
a(S'/3_6.png:norm'
p833
g17
F1301747766.0
tp834
a(S'/4_6.png:norm'
p835
g31
F1301747766.0
tp836
a(S'/5_6.png:norm'
p837
g20
F1301747766.0
tp838
a(S'/6_6.png:norm'
p839
g17
F1301747766.0
tp840
a(S'/7_6.png:norm'
p841
g79
F1301747766.0
tp842
a(S'/8_6.png:norm'
p843
g17
F1301747766.0
tp844
a(S'/9_6.png:gold'
p845
g17
F1301747766.0
tp846
assbsS'A378DJ0QABBKAO'
p847
g2
(g3
g4
Ntp848
Rp849
(dp850
g8
I0
sg9
I00
sg10
g847
sg11
I11
sg12
(dp851
g14
(lp852
(S'/4_11.png:norm'
p853
g79
F1301813275.0
tp854
a(S'/5_11.png:norm'
p855
g79
F1301813275.0
tp856
a(S'/6_11.png:norm'
p857
g31
F1301813275.0
tp858
a(S'/7_11.png:norm'
p859
g31
F1301813275.0
tp860
a(S'/8_11.png:norm'
p861
g17
F1301813275.0
tp862
a(S'/9_11.png:gold'
p863
g68
F1301813275.0
tp864
a(S'/4_12.png:norm'
p865
g79
F1301813408.0
tp866
a(S'/5_12.png:norm'
p867
g79
F1301813408.0
tp868
a(S'/6_12.png:norm'
p869
g17
F1301813408.0
tp870
a(S'/7_12.png:norm'
p871
g68
F1301813408.0
tp872
a(S'/8_12.png:norm'
p873
g79
F1301813408.0
tp874
a(S'/9_12.png:gold'
p875
g20
F1301813408.0
tp876
a(S'/4_13.png:norm'
p877
g79
F1301812609.0
tp878
a(S'/5_13.png:norm'
p879
g79
F1301812609.0
tp880
a(S'/6_13.png:norm'
p881
g17
F1301812609.0
tp882
a(S'/7_13.png:norm'
p883
g79
F1301812609.0
tp884
a(S'/8_13.png:norm'
p885
g68
F1301812609.0
tp886
a(S'/9_13.png:gold'
p887
g79
F1301812609.0
tp888
a(S'/1_14.png:norm'
p889
S'10'
p890
F1301812965.0
tp891
a(S'/2_14.png:norm'
p892
g17
F1301812965.0
tp893
a(S'/3_14.png:norm'
p894
g178
F1301812965.0
tp895
a(S'/4_14.png:norm'
p896
g181
F1301812965.0
tp897
a(S'/5_14.png:norm'
p898
g187
F1301812965.0
tp899
a(S'/6_14.png:norm'
p900
g31
F1301812965.0
tp901
a(S'/7_14.png:norm'
p902
g17
F1301812965.0
tp903
a(S'/8_14.png:norm'
p904
g187
F1301812965.0
tp905
a(S'/9_14.png:gold'
p906
g17
F1301812965.0
tp907
a(S'/1_1.png:norm'
p908
g68
F1301812882.0
tp909
a(S'/2_1.png:norm'
p910
g31
F1301812882.0
tp911
a(S'/3_1.png:norm'
p912
g79
F1301812882.0
tp913
a(S'/4_1.png:norm'
p914
g79
F1301812882.0
tp915
a(S'/5_1.png:norm'
p916
g31
F1301812882.0
tp917
a(S'/6_1.png:norm'
p918
g17
F1301812882.0
tp919
a(S'/7_1.png:norm'
p920
g17
F1301812882.0
tp921
a(S'/8_1.png:norm'
p922
g20
F1301812882.0
tp923
a(S'/9_1.png:gold'
p924
g68
F1301812882.0
tp925
a(S'/1_2.png:norm'
p926
g68
F1301812800.0
tp927
a(S'/2_2.png:norm'
p928
g31
F1301812800.0
tp929
a(S'/3_2.png:norm'
p930
g17
F1301812800.0
tp931
a(S'/4_2.png:norm'
p932
g79
F1301812800.0
tp933
a(S'/5_2.png:norm'
p934
g79
F1301812800.0
tp935
a(S'/6_2.png:norm'
p936
g79
F1301812800.0
tp937
a(S'/7_2.png:norm'
p938
g79
F1301812800.0
tp939
a(S'/8_2.png:norm'
p940
g79
F1301812800.0
tp941
a(S'/9_2.png:gold'
p942
g79
F1301812800.0
tp943
a(S'/1_4.png:norm'
p944
g79
F1301812711.0
tp945
a(S'/2_4.png:norm'
p946
g20
F1301812711.0
tp947
a(S'/3_4.png:norm'
p948
g68
F1301812711.0
tp949
a(S'/4_4.png:norm'
p950
g31
F1301812711.0
tp951
a(S'/5_4.png:norm'
p952
g17
F1301812711.0
tp953
a(S'/6_4.png:norm'
p954
g79
F1301812711.0
tp955
a(S'/7_4.png:norm'
p956
g79
F1301812711.0
tp957
a(S'/8_4.png:norm'
p958
g79
F1301812711.0
tp959
a(S'/9_4.png:gold'
p960
g17
F1301812711.0
tp961
a(S'/1_5.png:norm'
p962
g79
F1301813469.0
tp963
a(S'/2_5.png:norm'
p964
g31
F1301813469.0
tp965
a(S'/3_5.png:norm'
p966
g79
F1301813469.0
tp967
a(S'/4_5.png:norm'
p968
g79
F1301813469.0
tp969
a(S'/5_5.png:norm'
p970
g20
F1301813469.0
tp971
a(S'/6_5.png:norm'
p972
g68
F1301813469.0
tp973
a(S'/7_5.png:norm'
p974
g79
F1301813469.0
tp975
a(S'/8_5.png:norm'
p976
g31
F1301813469.0
tp977
a(S'/9_5.png:gold'
p978
g79
F1301813469.0
tp979
a(S'/1_6.png:norm'
p980
g79
F1301813217.0
tp981
a(S'/2_6.png:norm'
p982
g79
F1301813217.0
tp983
a(S'/3_6.png:norm'
p984
g17
F1301813217.0
tp985
a(S'/4_6.png:norm'
p986
g17
F1301813217.0
tp987
a(S'/5_6.png:norm'
p988
g31
F1301813217.0
tp989
a(S'/6_6.png:norm'
p990
g79
F1301813217.0
tp991
a(S'/7_6.png:norm'
p992
g79
F1301813217.0
tp993
a(S'/8_6.png:norm'
p994
g79
F1301813217.0
tp995
a(S'/9_6.png:gold'
p996
g68
F1301813217.0
tp997
a(S'/1_7.png:norm'
p998
g79
F1301813114.0
tp999
a(S'/2_7.png:norm'
p1000
g31
F1301813114.0
tp1001
a(S'/3_7.png:norm'
p1002
g20
F1301813114.0
tp1003
a(S'/4_7.png:norm'
p1004
g79
F1301813114.0
tp1005
a(S'/5_7.png:norm'
p1006
g17
F1301813114.0
tp1007
a(S'/6_7.png:norm'
p1008
g68
F1301813114.0
tp1009
a(S'/7_7.png:norm'
p1010
g79
F1301813114.0
tp1011
a(S'/8_7.png:norm'
p1012
g31
F1301813114.0
tp1013
a(S'/9_7.png:gold'
p1014
g79
F1301813114.0
tp1015
a(S'/1_8.png:norm'
p1016
g31
F1301813049.0
tp1017
a(S'/2_8.png:norm'
p1018
g31
F1301813049.0
tp1019
a(S'/3_8.png:norm'
p1020
g79
F1301813049.0
tp1021
a(S'/4_8.png:norm'
p1022
g68
F1301813049.0
tp1023
a(S'/5_8.png:norm'
p1024
g31
F1301813049.0
tp1025
a(S'/6_8.png:norm'
p1026
g17
F1301813049.0
tp1027
a(S'/7_8.png:norm'
p1028
g68
F1301813049.0
tp1029
a(S'/8_8.png:norm'
p1030
g79
F1301813049.0
tp1031
a(S'/9_8.png:gold'
p1032
g79
F1301813049.0
tp1033
a(S'/1_9.png:norm'
p1034
g68
F1301813340.0
tp1035
a(S'/2_9.png:norm'
p1036
g79
F1301813340.0
tp1037
a(S'/3_9.png:norm'
p1038
g31
F1301813340.0
tp1039
a(S'/4_9.png:norm'
p1040
g20
F1301813340.0
tp1041
a(S'/5_9.png:norm'
p1042
g17
F1301813340.0
tp1043
a(S'/6_9.png:norm'
p1044
g79
F1301813340.0
tp1045
a(S'/7_9.png:norm'
p1046
g31
F1301813340.0
tp1047
a(S'/8_9.png:norm'
p1048
g79
F1301813340.0
tp1049
a(S'/9_9.png:gold'
p1050
g79
F1301813340.0
tp1051
assbsS'ACGUOCR34EL4R'
p1052
g2
(g3
g4
Ntp1053
Rp1054
(dp1055
g8
I0
sg9
I00
sg10
g1052
sg11
I6
sg12
(dp1056
g14
(lp1057
(S'/4_13.png:norm'
p1058
g31
F1301832234.0
tp1059
a(S'/5_13.png:norm'
p1060
g20
F1301832234.0
tp1061
a(S'/6_13.png:norm'
p1062
g20
F1301832234.0
tp1063
a(S'/7_13.png:norm'
p1064
g20
F1301832234.0
tp1065
a(S'/8_13.png:norm'
p1066
g20
F1301832234.0
tp1067
a(S'/9_13.png:gold'
p1068
g20
F1301832234.0
tp1069
a(S'/1_14.png:norm'
p1070
g187
F1301832440.0
tp1071
a(S'/2_14.png:norm'
p1072
g20
F1301832440.0
tp1073
a(S'/3_14.png:norm'
p1074
g20
F1301832440.0
tp1075
a(S'/4_14.png:norm'
p1076
g20
F1301832440.0
tp1077
a(S'/5_14.png:norm'
p1078
g20
F1301832440.0
tp1079
a(S'/6_14.png:norm'
p1080
g20
F1301832440.0
tp1081
a(S'/7_14.png:norm'
p1082
g20
F1301832440.0
tp1083
a(S'/8_14.png:norm'
p1084
g20
F1301832440.0
tp1085
a(S'/9_14.png:gold'
p1086
g20
F1301832440.0
tp1087
a(S'/1_1.png:norm'
p1088
g20
F1301832063.0
tp1089
a(S'/2_1.png:norm'
p1090
g20
F1301832063.0
tp1091
a(S'/3_1.png:norm'
p1092
g20
F1301832063.0
tp1093
a(S'/4_1.png:norm'
p1094
g20
F1301832063.0
tp1095
a(S'/5_1.png:norm'
p1096
g20
F1301832063.0
tp1097
a(S'/6_1.png:norm'
p1098
g20
F1301832063.0
tp1099
a(S'/7_1.png:norm'
p1100
g20
F1301832063.0
tp1101
a(S'/8_1.png:norm'
p1102
g20
F1301832063.0
tp1103
a(S'/9_1.png:gold'
p1104
g20
F1301832063.0
tp1105
a(S'/1_2.png:norm'
p1106
g79
F1301832534.0
tp1107
a(S'/2_2.png:norm'
p1108
g20
F1301832534.0
tp1109
a(S'/3_2.png:norm'
p1110
g20
F1301832534.0
tp1111
a(S'/4_2.png:norm'
p1112
g20
F1301832534.0
tp1113
a(S'/5_2.png:norm'
p1114
g20
F1301832534.0
tp1115
a(S'/6_2.png:norm'
p1116
g20
F1301832534.0
tp1117
a(S'/7_2.png:norm'
p1118
g20
F1301832534.0
tp1119
a(S'/8_2.png:norm'
p1120
g20
F1301832534.0
tp1121
a(S'/9_2.png:gold'
p1122
g20
F1301832534.0
tp1123
a(S'/1_7.png:norm'
p1124
g79
F1301830060.0
tp1125
a(S'/2_7.png:norm'
p1126
g20
F1301830060.0
tp1127
a(S'/3_7.png:norm'
p1128
g20
F1301830060.0
tp1129
a(S'/4_7.png:norm'
p1130
g20
F1301830060.0
tp1131
a(S'/5_7.png:norm'
p1132
g20
F1301830060.0
tp1133
a(S'/6_7.png:norm'
p1134
g20
F1301830060.0
tp1135
a(S'/7_7.png:norm'
p1136
g20
F1301830060.0
tp1137
a(S'/8_7.png:norm'
p1138
g20
F1301830060.0
tp1139
a(S'/9_7.png:gold'
p1140
g20
F1301830060.0
tp1141
a(S'/1_8.png:norm'
p1142
g79
F1301829957.0
tp1143
a(S'/2_8.png:norm'
p1144
g68
F1301829957.0
tp1145
a(S'/3_8.png:norm'
p1146
g31
F1301829957.0
tp1147
a(S'/4_8.png:norm'
p1148
g20
F1301829957.0
tp1149
a(S'/5_8.png:norm'
p1150
g68
F1301829957.0
tp1151
a(S'/6_8.png:norm'
p1152
g31
F1301829957.0
tp1153
a(S'/7_8.png:norm'
p1154
g20
F1301829957.0
tp1155
a(S'/8_8.png:norm'
p1156
g20
F1301829957.0
tp1157
a(S'/9_8.png:gold'
p1158
g20
F1301829957.0
tp1159
assbsS'A2AYDMZJ4OLIKI'
p1160
g2
(g3
g4
Ntp1161
Rp1162
(dp1163
g8
I0
sg9
I00
sg10
g1160
sg11
I3
sg12
(dp1164
g14
(lp1165
(S'/4_11.png:norm'
p1166
g79
F1301758295.0
tp1167
a(S'/5_11.png:norm'
p1168
g17
F1301758295.0
tp1169
a(S'/6_11.png:norm'
p1170
g17
F1301758295.0
tp1171
a(S'/7_11.png:norm'
p1172
g17
F1301758295.0
tp1173
a(S'/8_11.png:norm'
p1174
g17
F1301758295.0
tp1175
a(S'/9_11.png:gold'
p1176
g17
F1301758295.0
tp1177
a(S'/4_13.png:norm'
p1178
g79
F1301757788.0
tp1179
a(S'/5_13.png:norm'
p1180
g79
F1301757788.0
tp1181
a(S'/6_13.png:norm'
p1182
g79
F1301757788.0
tp1183
a(S'/7_13.png:norm'
p1184
g31
F1301757788.0
tp1185
a(S'/8_13.png:norm'
p1186
g31
F1301757788.0
tp1187
a(S'/9_13.png:gold'
p1188
g31
F1301757788.0
tp1189
a(S'/1_1.png:norm'
p1190
g20
F1301758589.0
tp1191
a(S'/2_1.png:norm'
p1192
g68
F1301758589.0
tp1193
a(S'/3_1.png:norm'
p1194
g20
F1301758589.0
tp1195
a(S'/4_1.png:norm'
p1196
g20
F1301758589.0
tp1197
a(S'/5_1.png:norm'
p1198
g20
F1301758589.0
tp1199
a(S'/6_1.png:norm'
p1200
g20
F1301758589.0
tp1201
a(S'/7_1.png:norm'
p1202
g20
F1301758589.0
tp1203
a(S'/8_1.png:norm'
p1204
g20
F1301758589.0
tp1205
a(S'/9_1.png:gold'
p1206
g20
F1301758589.0
tp1207
a(S'/1_9.png:norm'
p1208
g31
F1301758006.0
tp1209
a(S'/2_9.png:norm'
p1210
g31
F1301758006.0
tp1211
a(S'/3_9.png:norm'
p1212
g31
F1301758006.0
tp1213
a(S'/4_9.png:norm'
p1214
g31
F1301758006.0
tp1215
a(S'/5_9.png:norm'
p1216
g31
F1301758006.0
tp1217
a(S'/6_9.png:norm'
p1218
g31
F1301758006.0
tp1219
a(S'/7_9.png:norm'
p1220
g31
F1301758006.0
tp1221
a(S'/8_9.png:norm'
p1222
g20
F1301758006.0
tp1223
a(S'/9_9.png:gold'
p1224
g31
F1301758006.0
tp1225
assbsS'A8HJRBLY6Q4KF'
p1226
g2
(g3
g4
Ntp1227
Rp1228
(dp1229
g8
I0
sg9
I00
sg10
g1226
sg11
I0
sg12
(dp1230
g14
(lp1231
(S'/1_3.png:norm'
p1232
g31
F1301776236.0
tp1233
a(S'/2_3.png:norm'
p1234
g79
F1301776236.0
tp1235
a(S'/3_3.png:norm'
p1236
g79
F1301776236.0
tp1237
a(S'/4_3.png:norm'
p1238
g31
F1301776236.0
tp1239
a(S'/5_3.png:norm'
p1240
g17
F1301776236.0
tp1241
a(S'/6_3.png:norm'
p1242
g17
F1301776236.0
tp1243
a(S'/7_3.png:norm'
p1244
g79
F1301776236.0
tp1245
a(S'/8_3.png:norm'
p1246
g79
F1301776236.0
tp1247
a(S'/9_3.png:gold'
p1248
g17
F1301776236.0
tp1249
assbsS'A2DWXLKMPUUQNA'
p1250
g2
(g3
g4
Ntp1251
Rp1252
(dp1253
g8
I0
sg9
I00
sg10
g1250
sg11
I4
sg12
(dp1254
g14
(lp1255
(S'/1_14.png:norm'
p1256
g17
F1301818859.0
tp1257
a(S'/2_14.png:norm'
p1258
g20
F1301818859.0
tp1259
a(S'/3_14.png:norm'
p1260
g31
F1301818859.0
tp1261
a(S'/4_14.png:norm'
p1262
g187
F1301818859.0
tp1263
a(S'/5_14.png:norm'
p1264
S'6'
p1265
F1301818859.0
tp1266
a(S'/6_14.png:norm'
p1267
g187
F1301818859.0
tp1268
a(S'/7_14.png:norm'
p1269
g181
F1301818859.0
tp1270
a(S'/8_14.png:norm'
p1271
g31
F1301818859.0
tp1272
a(S'/9_14.png:gold'
p1273
g31
F1301818859.0
tp1274
a(S'/1_1.png:norm'
p1275
g31
F1301819086.0
tp1276
a(S'/2_1.png:norm'
p1277
g31
F1301819086.0
tp1278
a(S'/3_1.png:norm'
p1279
g17
F1301819086.0
tp1280
a(S'/4_1.png:norm'
p1281
g31
F1301819086.0
tp1282
a(S'/5_1.png:norm'
p1283
g17
F1301819086.0
tp1284
a(S'/6_1.png:norm'
p1285
g31
F1301819086.0
tp1286
a(S'/7_1.png:norm'
p1287
g31
F1301819086.0
tp1288
a(S'/8_1.png:norm'
p1289
g17
F1301819086.0
tp1290
a(S'/9_1.png:gold'
p1291
g31
F1301819086.0
tp1292
a(S'/1_4.png:norm'
p1293
g68
F1301819028.0
tp1294
a(S'/2_4.png:norm'
p1295
g68
F1301819028.0
tp1296
a(S'/3_4.png:norm'
p1297
g79
F1301819028.0
tp1298
a(S'/4_4.png:norm'
p1299
g20
F1301819028.0
tp1300
a(S'/5_4.png:norm'
p1301
g20
F1301819028.0
tp1302
a(S'/6_4.png:norm'
p1303
g20
F1301819028.0
tp1304
a(S'/7_4.png:norm'
p1305
g79
F1301819028.0
tp1306
a(S'/8_4.png:norm'
p1307
g20
F1301819028.0
tp1308
a(S'/9_4.png:gold'
p1309
g68
F1301819028.0
tp1310
a(S'/1_9.png:norm'
p1311
g68
F1301819170.0
tp1312
a(S'/2_9.png:norm'
p1313
g79
F1301819170.0
tp1314
a(S'/3_9.png:norm'
p1315
g68
F1301819170.0
tp1316
a(S'/4_9.png:norm'
p1317
g20
F1301819170.0
tp1318
a(S'/5_9.png:norm'
p1319
g79
F1301819170.0
tp1320
a(S'/6_9.png:norm'
p1321
g79
F1301819170.0
tp1322
a(S'/7_9.png:norm'
p1323
g68
F1301819170.0
tp1324
a(S'/8_9.png:norm'
p1325
g68
F1301819170.0
tp1326
a(S'/9_9.png:gold'
p1327
g68
F1301819170.0
tp1328
assbsS'A3G4AUP6VUEW2O'
p1329
g2
(g3
g4
Ntp1330
Rp1331
(dp1332
g8
I0
sg9
I00
sg10
g1329
sg11
I1
sg12
(dp1333
g14
(lp1334
(S'/4_11.png:norm'
p1335
g31
F1301730990.0
tp1336
a(S'/5_11.png:norm'
p1337
g79
F1301730990.0
tp1338
a(S'/6_11.png:norm'
p1339
g17
F1301730990.0
tp1340
a(S'/7_11.png:norm'
p1341
g31
F1301730990.0
tp1342
a(S'/8_11.png:norm'
p1343
g68
F1301730990.0
tp1344
a(S'/9_11.png:gold'
p1345
g31
F1301730990.0
tp1346
assbsS'A3PABOW1OQ9MX1'
p1347
g2
(g3
g4
Ntp1348
Rp1349
(dp1350
g8
I0
sg9
I00
sg10
g1347
sg11
I1
sg12
(dp1351
g14
(lp1352
(S'/4_13.png:norm'
p1353
g79
F1301726974.0
tp1354
a(S'/5_13.png:norm'
p1355
g20
F1301726974.0
tp1356
a(S'/6_13.png:norm'
p1357
g79
F1301726974.0
tp1358
a(S'/7_13.png:norm'
p1359
g17
F1301726974.0
tp1360
a(S'/8_13.png:norm'
p1361
g20
F1301726974.0
tp1362
a(S'/9_13.png:gold'
p1363
g20
F1301726974.0
tp1364
assbsS'A5D11OZX5OF7T'
p1365
g2
(g3
g4
Ntp1366
Rp1367
(dp1368
g8
I0
sg9
I00
sg10
g1365
sg11
I1
sg12
(dp1369
g14
(lp1370
(S'/1_4.png:norm'
p1371
g31
F1301741863.0
tp1372
a(S'/2_4.png:norm'
p1373
g31
F1301741863.0
tp1374
a(S'/3_4.png:norm'
p1375
g79
F1301741863.0
tp1376
a(S'/4_4.png:norm'
p1377
g31
F1301741863.0
tp1378
a(S'/5_4.png:norm'
p1379
g17
F1301741863.0
tp1380
a(S'/6_4.png:norm'
p1381
g31
F1301741863.0
tp1382
a(S'/7_4.png:norm'
p1383
g31
F1301741863.0
tp1384
a(S'/8_4.png:norm'
p1385
g20
F1301741863.0
tp1386
a(S'/9_4.png:gold'
p1387
g20
F1301741863.0
tp1388
assbsS'A1K30PLG1HTDZ3'
p1389
g2
(g3
g4
Ntp1390
Rp1391
(dp1392
g8
I0
sg9
I00
sg10
g1389
sg11
I1
sg12
(dp1393
g14
(lp1394
(S'/4_10.png:norm'
p1395
g17
F1301773458.0
tp1396
a(S'/5_10.png:norm'
p1397
g17
F1301773458.0
tp1398
a(S'/6_10.png:norm'
p1399
g17
F1301773458.0
tp1400
a(S'/7_10.png:norm'
p1401
g17
F1301773458.0
tp1402
a(S'/8_10.png:norm'
p1403
g17
F1301773458.0
tp1404
a(S'/9_10.png:gold'
p1405
g17
F1301773458.0
tp1406
a(S'/1_1.png:norm'
p1407
g20
F1301773528.0
tp1408
a(S'/2_1.png:norm'
p1409
g20
F1301773528.0
tp1410
a(S'/3_1.png:norm'
p1411
g20
F1301773528.0
tp1412
a(S'/4_1.png:norm'
p1413
g20
F1301773528.0
tp1414
a(S'/5_1.png:norm'
p1415
g20
F1301773528.0
tp1416
a(S'/6_1.png:norm'
p1417
g20
F1301773528.0
tp1418
a(S'/7_1.png:norm'
p1419
g20
F1301773528.0
tp1420
a(S'/8_1.png:norm'
p1421
g20
F1301773528.0
tp1422
a(S'/9_1.png:gold'
p1423
g20
F1301773528.0
tp1424
assbsS'A3BU50VN1MB1W3'
p1425
g2
(g3
g4
Ntp1426
Rp1427
(dp1428
g8
I0
sg9
I00
sg10
g1425
sg11
I10
sg12
(dp1429
g14
(lp1430
(S'/4_10.png:norm'
p1431
g68
F1301759634.0
tp1432
a(S'/5_10.png:norm'
p1433
g20
F1301759634.0
tp1434
a(S'/6_10.png:norm'
p1435
g20
F1301759634.0
tp1436
a(S'/7_10.png:norm'
p1437
g20
F1301759634.0
tp1438
a(S'/8_10.png:norm'
p1439
g68
F1301759634.0
tp1440
a(S'/9_10.png:gold'
p1441
g68
F1301759634.0
tp1442
a(S'/4_11.png:norm'
p1443
g20
F1301760097.0
tp1444
a(S'/5_11.png:norm'
p1445
g20
F1301760097.0
tp1446
a(S'/6_11.png:norm'
p1447
g20
F1301760097.0
tp1448
a(S'/7_11.png:norm'
p1449
g20
F1301760097.0
tp1450
a(S'/8_11.png:norm'
p1451
g20
F1301760097.0
tp1452
a(S'/9_11.png:gold'
p1453
g20
F1301760097.0
tp1454
a(S'/4_12.png:norm'
p1455
g68
F1301760048.0
tp1456
a(S'/5_12.png:norm'
p1457
g20
F1301760048.0
tp1458
a(S'/6_12.png:norm'
p1459
g68
F1301760048.0
tp1460
a(S'/7_12.png:norm'
p1461
g20
F1301760048.0
tp1462
a(S'/8_12.png:norm'
p1463
g20
F1301760048.0
tp1464
a(S'/9_12.png:gold'
p1465
g20
F1301760048.0
tp1466
a(S'/1_1.png:norm'
p1467
g17
F1301760249.0
tp1468
a(S'/2_1.png:norm'
p1469
g17
F1301760249.0
tp1470
a(S'/3_1.png:norm'
p1471
g20
F1301760249.0
tp1472
a(S'/4_1.png:norm'
p1473
g20
F1301760249.0
tp1474
a(S'/5_1.png:norm'
p1475
g20
F1301760249.0
tp1476
a(S'/6_1.png:norm'
p1477
g20
F1301760249.0
tp1478
a(S'/7_1.png:norm'
p1479
g20
F1301760249.0
tp1480
a(S'/8_1.png:norm'
p1481
g20
F1301760249.0
tp1482
a(S'/9_1.png:gold'
p1483
g20
F1301760249.0
tp1484
a(S'/1_2.png:norm'
p1485
g79
F1301759972.0
tp1486
a(S'/2_2.png:norm'
p1487
g20
F1301759972.0
tp1488
a(S'/3_2.png:norm'
p1489
g79
F1301759972.0
tp1490
a(S'/4_2.png:norm'
p1491
g79
F1301759972.0
tp1492
a(S'/5_2.png:norm'
p1493
g20
F1301759972.0
tp1494
a(S'/6_2.png:norm'
p1495
g20
F1301759972.0
tp1496
a(S'/7_2.png:norm'
p1497
g20
F1301759972.0
tp1498
a(S'/8_2.png:norm'
p1499
g20
F1301759972.0
tp1500
a(S'/9_2.png:gold'
p1501
g79
F1301759972.0
tp1502
a(S'/1_3.png:norm'
p1503
g17
F1301759488.0
tp1504
a(S'/2_3.png:norm'
p1505
g31
F1301759488.0
tp1506
a(S'/3_3.png:norm'
p1507
g68
F1301759488.0
tp1508
a(S'/4_3.png:norm'
p1509
g20
F1301759488.0
tp1510
a(S'/5_3.png:norm'
p1511
g20
F1301759488.0
tp1512
a(S'/6_3.png:norm'
p1513
g20
F1301759488.0
tp1514
a(S'/7_3.png:norm'
p1515
g31
F1301759488.0
tp1516
a(S'/8_3.png:norm'
p1517
g31
F1301759488.0
tp1518
a(S'/9_3.png:gold'
p1519
g79
F1301759488.0
tp1520
a(S'/1_4.png:norm'
p1521
g17
F1301759812.0
tp1522
a(S'/2_4.png:norm'
p1523
g20
F1301759812.0
tp1524
a(S'/3_4.png:norm'
p1525
g17
F1301759812.0
tp1526
a(S'/4_4.png:norm'
p1527
g20
F1301759812.0
tp1528
a(S'/5_4.png:norm'
p1529
g17
F1301759812.0
tp1530
a(S'/6_4.png:norm'
p1531
g20
F1301759812.0
tp1532
a(S'/7_4.png:norm'
p1533
g20
F1301759812.0
tp1534
a(S'/8_4.png:norm'
p1535
g20
F1301759812.0
tp1536
a(S'/9_4.png:gold'
p1537
g20
F1301759812.0
tp1538
a(S'/1_5.png:norm'
p1539
g31
F1301760170.0
tp1540
a(S'/2_5.png:norm'
p1541
g20
F1301760170.0
tp1542
a(S'/3_5.png:norm'
p1543
g20
F1301760170.0
tp1544
a(S'/4_5.png:norm'
p1545
g20
F1301760170.0
tp1546
a(S'/5_5.png:norm'
p1547
g31
F1301760170.0
tp1548
a(S'/6_5.png:norm'
p1549
g20
F1301760170.0
tp1550
a(S'/7_5.png:norm'
p1551
g31
F1301760170.0
tp1552
a(S'/8_5.png:norm'
p1553
g20
F1301760170.0
tp1554
a(S'/9_5.png:gold'
p1555
g20
F1301760170.0
tp1556
a(S'/1_6.png:norm'
p1557
g68
F1301759546.0
tp1558
a(S'/2_6.png:norm'
p1559
g79
F1301759546.0
tp1560
a(S'/3_6.png:norm'
p1561
g20
F1301759546.0
tp1562
a(S'/4_6.png:norm'
p1563
g68
F1301759546.0
tp1564
a(S'/5_6.png:norm'
p1565
g31
F1301759546.0
tp1566
a(S'/6_6.png:norm'
p1567
g20
F1301759546.0
tp1568
a(S'/7_6.png:norm'
p1569
g20
F1301759546.0
tp1570
a(S'/8_6.png:norm'
p1571
g20
F1301759546.0
tp1572
a(S'/9_6.png:gold'
p1573
g20
F1301759546.0
tp1574
a(S'/1_7.png:norm'
p1575
g31
F1301759719.0
tp1576
a(S'/2_7.png:norm'
p1577
g20
F1301759719.0
tp1578
a(S'/3_7.png:norm'
p1579
g20
F1301759719.0
tp1580
a(S'/4_7.png:norm'
p1581
g20
F1301759719.0
tp1582
a(S'/5_7.png:norm'
p1583
g20
F1301759719.0
tp1584
a(S'/6_7.png:norm'
p1585
g31
F1301759719.0
tp1586
a(S'/7_7.png:norm'
p1587
g20
F1301759719.0
tp1588
a(S'/8_7.png:norm'
p1589
g31
F1301759719.0
tp1590
a(S'/9_7.png:gold'
p1591
g20
F1301759719.0
tp1592
assbsS'A2PBNZYHDPZILO'
p1593
g2
(g3
g4
Ntp1594
Rp1595
(dp1596
g8
I0
sg9
I00
sg10
g1593
sg11
I0
sg12
(dp1597
g14
(lp1598
(S'/1_7.png:norm'
p1599
g79
F1301829085.0
tp1600
a(S'/2_7.png:norm'
p1601
g20
F1301829085.0
tp1602
a(S'/3_7.png:norm'
p1603
g17
F1301829085.0
tp1604
a(S'/4_7.png:norm'
p1605
g20
F1301829085.0
tp1606
a(S'/5_7.png:norm'
p1607
g20
F1301829085.0
tp1608
a(S'/6_7.png:norm'
p1609
g17
F1301829085.0
tp1610
a(S'/7_7.png:norm'
p1611
g20
F1301829085.0
tp1612
a(S'/8_7.png:norm'
p1613
g79
F1301829085.0
tp1614
a(S'/9_7.png:gold'
p1615
g17
F1301829085.0
tp1616
assbsS'A1HFYPITO6Z52Y'
p1617
g2
(g3
g4
Ntp1618
Rp1619
(dp1620
g8
I0
sg9
I00
sg10
g1617
sg11
I5
sg12
(dp1621
g14
(lp1622
(S'/4_10.png:norm'
p1623
g79
F1301728073.0
tp1624
a(S'/5_10.png:norm'
p1625
g68
F1301728073.0
tp1626
a(S'/6_10.png:norm'
p1627
g20
F1301728073.0
tp1628
a(S'/7_10.png:norm'
p1629
g68
F1301728073.0
tp1630
a(S'/8_10.png:norm'
p1631
g20
F1301728073.0
tp1632
a(S'/9_10.png:gold'
p1633
g20
F1301728073.0
tp1634
a(S'/4_11.png:norm'
p1635
g31
F1301728234.0
tp1636
a(S'/5_11.png:norm'
p1637
g20
F1301728234.0
tp1638
a(S'/6_11.png:norm'
p1639
g20
F1301728234.0
tp1640
a(S'/7_11.png:norm'
p1641
g31
F1301728234.0
tp1642
a(S'/8_11.png:norm'
p1643
g20
F1301728234.0
tp1644
a(S'/9_11.png:gold'
p1645
g31
F1301728234.0
tp1646
a(S'/1_2.png:norm'
p1647
g79
F1301727724.0
tp1648
a(S'/2_2.png:norm'
p1649
g20
F1301727724.0
tp1650
a(S'/3_2.png:norm'
p1651
g20
F1301727724.0
tp1652
a(S'/4_2.png:norm'
p1653
g20
F1301727724.0
tp1654
a(S'/5_2.png:norm'
p1655
g79
F1301727724.0
tp1656
a(S'/6_2.png:norm'
p1657
g20
F1301727724.0
tp1658
a(S'/7_2.png:norm'
p1659
g20
F1301727724.0
tp1660
a(S'/8_2.png:norm'
p1661
g20
F1301727724.0
tp1662
a(S'/9_2.png:gold'
p1663
g20
F1301727724.0
tp1664
a(S'/1_3.png:norm'
p1665
g31
F1301727926.0
tp1666
a(S'/2_3.png:norm'
p1667
g20
F1301727926.0
tp1668
a(S'/3_3.png:norm'
p1669
g20
F1301727926.0
tp1670
a(S'/4_3.png:norm'
p1671
g20
F1301727926.0
tp1672
a(S'/5_3.png:norm'
p1673
g20
F1301727926.0
tp1674
a(S'/6_3.png:norm'
p1675
g20
F1301727926.0
tp1676
a(S'/7_3.png:norm'
p1677
g31
F1301727926.0
tp1678
a(S'/8_3.png:norm'
p1679
g20
F1301727926.0
tp1680
a(S'/9_3.png:gold'
p1681
g20
F1301727926.0
tp1682
a(S'/1_5.png:norm'
p1683
g79
F1301727598.0
tp1684
a(S'/2_5.png:norm'
p1685
g68
F1301727598.0
tp1686
a(S'/3_5.png:norm'
p1687
g20
F1301727598.0
tp1688
a(S'/4_5.png:norm'
p1689
g31
F1301727598.0
tp1690
a(S'/5_5.png:norm'
p1691
g79
F1301727598.0
tp1692
a(S'/6_5.png:norm'
p1693
g20
F1301727598.0
tp1694
a(S'/7_5.png:norm'
p1695
g20
F1301727598.0
tp1696
a(S'/8_5.png:norm'
p1697
g20
F1301727598.0
tp1698
a(S'/9_5.png:gold'
p1699
g20
F1301727598.0
tp1700
assbsS'A2COB9JH3BL6IM'
p1701
g2
(g3
g4
Ntp1702
Rp1703
(dp1704
g8
I0
sg9
I00
sg10
g1701
sg11
I10
sg12
(dp1705
g14
(lp1706
(S'/4_10.png:norm'
p1707
g79
F1301730863.0
tp1708
a(S'/5_10.png:norm'
p1709
g68
F1301730863.0
tp1710
a(S'/6_10.png:norm'
p1711
g68
F1301730863.0
tp1712
a(S'/7_10.png:norm'
p1713
g31
F1301730863.0
tp1714
a(S'/8_10.png:norm'
p1715
g17
F1301730863.0
tp1716
a(S'/9_10.png:gold'
p1717
g31
F1301730863.0
tp1718
a(S'/4_11.png:norm'
p1719
g68
F1301730670.0
tp1720
a(S'/5_11.png:norm'
p1721
g79
F1301730670.0
tp1722
a(S'/6_11.png:norm'
p1723
g17
F1301730670.0
tp1724
a(S'/7_11.png:norm'
p1725
g68
F1301730670.0
tp1726
a(S'/8_11.png:norm'
p1727
g68
F1301730670.0
tp1728
a(S'/9_11.png:gold'
p1729
g68
F1301730670.0
tp1730
a(S'/4_12.png:norm'
p1731
g68
F1301731090.0
tp1732
a(S'/5_12.png:norm'
p1733
g79
F1301731090.0
tp1734
a(S'/6_12.png:norm'
p1735
g17
F1301731090.0
tp1736
a(S'/7_12.png:norm'
p1737
g79
F1301731090.0
tp1738
a(S'/8_12.png:norm'
p1739
g68
F1301731090.0
tp1740
a(S'/9_12.png:gold'
p1741
g68
F1301731090.0
tp1742
a(S'/4_13.png:norm'
p1743
g20
F1301730902.0
tp1744
a(S'/5_13.png:norm'
p1745
g68
F1301730902.0
tp1746
a(S'/6_13.png:norm'
p1747
g79
F1301730902.0
tp1748
a(S'/7_13.png:norm'
p1749
g79
F1301730902.0
tp1750
a(S'/8_13.png:norm'
p1751
g68
F1301730902.0
tp1752
a(S'/9_13.png:gold'
p1753
g17
F1301730902.0
tp1754
a(S'/1_14.png:norm'
p1755
g68
F1301731199.0
tp1756
a(S'/2_14.png:norm'
p1757
g1265
F1301731199.0
tp1758
a(S'/3_14.png:norm'
p1759
g1265
F1301731199.0
tp1760
a(S'/4_14.png:norm'
p1761
g181
F1301731199.0
tp1762
a(S'/5_14.png:norm'
p1763
g184
F1301731199.0
tp1764
a(S'/6_14.png:norm'
p1765
g181
F1301731199.0
tp1766
a(S'/7_14.png:norm'
p1767
g17
F1301731199.0
tp1768
a(S'/8_14.png:norm'
p1769
g17
F1301731199.0
tp1770
a(S'/9_14.png:gold'
p1771
g31
F1301731199.0
tp1772
a(S'/1_1.png:norm'
p1773
g79
F1301731048.0
tp1774
a(S'/2_1.png:norm'
p1775
g68
F1301731048.0
tp1776
a(S'/3_1.png:norm'
p1777
g68
F1301731048.0
tp1778
a(S'/4_1.png:norm'
p1779
g68
F1301731048.0
tp1780
a(S'/5_1.png:norm'
p1781
g79
F1301731048.0
tp1782
a(S'/6_1.png:norm'
p1783
g68
F1301731048.0
tp1784
a(S'/7_1.png:norm'
p1785
g79
F1301731048.0
tp1786
a(S'/8_1.png:norm'
p1787
g79
F1301731048.0
tp1788
a(S'/9_1.png:gold'
p1789
g79
F1301731048.0
tp1790
a(S'/1_3.png:norm'
p1791
g31
F1301730813.0
tp1792
a(S'/2_3.png:norm'
p1793
g17
F1301730813.0
tp1794
a(S'/3_3.png:norm'
p1795
g79
F1301730813.0
tp1796
a(S'/4_3.png:norm'
p1797
g79
F1301730813.0
tp1798
a(S'/5_3.png:norm'
p1799
g68
F1301730813.0
tp1800
a(S'/6_3.png:norm'
p1801
g79
F1301730813.0
tp1802
a(S'/7_3.png:norm'
p1803
g68
F1301730813.0
tp1804
a(S'/8_3.png:norm'
p1805
g79
F1301730813.0
tp1806
a(S'/9_3.png:gold'
p1807
g79
F1301730813.0
tp1808
a(S'/1_5.png:norm'
p1809
g68
F1301730946.0
tp1810
a(S'/2_5.png:norm'
p1811
g31
F1301730946.0
tp1812
a(S'/3_5.png:norm'
p1813
g31
F1301730946.0
tp1814
a(S'/4_5.png:norm'
p1815
g79
F1301730946.0
tp1816
a(S'/5_5.png:norm'
p1817
g68
F1301730946.0
tp1818
a(S'/6_5.png:norm'
p1819
g79
F1301730946.0
tp1820
a(S'/7_5.png:norm'
p1821
g31
F1301730946.0
tp1822
a(S'/8_5.png:norm'
p1823
g79
F1301730946.0
tp1824
a(S'/9_5.png:gold'
p1825
g68
F1301730946.0
tp1826
a(S'/1_6.png:norm'
p1827
g79
F1301730761.0
tp1828
a(S'/2_6.png:norm'
p1829
g79
F1301730761.0
tp1830
a(S'/3_6.png:norm'
p1831
g79
F1301730761.0
tp1832
a(S'/4_6.png:norm'
p1833
g79
F1301730761.0
tp1834
a(S'/5_6.png:norm'
p1835
g79
F1301730761.0
tp1836
a(S'/6_6.png:norm'
p1837
g79
F1301730761.0
tp1838
a(S'/7_6.png:norm'
p1839
g68
F1301730761.0
tp1840
a(S'/8_6.png:norm'
p1841
g68
F1301730761.0
tp1842
a(S'/9_6.png:gold'
p1843
g68
F1301730761.0
tp1844
a(S'/1_8.png:norm'
p1845
g68
F1301731003.0
tp1846
a(S'/2_8.png:norm'
p1847
g68
F1301731003.0
tp1848
a(S'/3_8.png:norm'
p1849
g79
F1301731003.0
tp1850
a(S'/4_8.png:norm'
p1851
g17
F1301731003.0
tp1852
a(S'/5_8.png:norm'
p1853
g79
F1301731003.0
tp1854
a(S'/6_8.png:norm'
p1855
g68
F1301731003.0
tp1856
a(S'/7_8.png:norm'
p1857
g79
F1301731003.0
tp1858
a(S'/8_8.png:norm'
p1859
g79
F1301731003.0
tp1860
a(S'/9_8.png:gold'
p1861
g68
F1301731003.0
tp1862
a(S'/1_9.png:norm'
p1863
g68
F1301731137.0
tp1864
a(S'/2_9.png:norm'
p1865
g79
F1301731137.0
tp1866
a(S'/3_9.png:norm'
p1867
g31
F1301731137.0
tp1868
a(S'/4_9.png:norm'
p1869
g17
F1301731137.0
tp1870
a(S'/5_9.png:norm'
p1871
g68
F1301731137.0
tp1872
a(S'/6_9.png:norm'
p1873
g79
F1301731137.0
tp1874
a(S'/7_9.png:norm'
p1875
g31
F1301731137.0
tp1876
a(S'/8_9.png:norm'
p1877
g17
F1301731137.0
tp1878
a(S'/9_9.png:gold'
p1879
g68
F1301731137.0
tp1880
assbsS'A1FBUME4HDM80M'
p1881
g2
(g3
g4
Ntp1882
Rp1883
(dp1884
g8
I0
sg9
I00
sg10
g1881
sg11
I2
sg12
(dp1885
g14
(lp1886
(S'/1_2.png:norm'
p1887
g31
F1301817445.0
tp1888
a(S'/2_2.png:norm'
p1889
g31
F1301817445.0
tp1890
a(S'/3_2.png:norm'
p1891
g31
F1301817445.0
tp1892
a(S'/4_2.png:norm'
p1893
g31
F1301817445.0
tp1894
a(S'/5_2.png:norm'
p1895
g31
F1301817445.0
tp1896
a(S'/6_2.png:norm'
p1897
g31
F1301817445.0
tp1898
a(S'/7_2.png:norm'
p1899
g31
F1301817445.0
tp1900
a(S'/8_2.png:norm'
p1901
g31
F1301817445.0
tp1902
a(S'/9_2.png:gold'
p1903
g31
F1301817445.0
tp1904
a(S'/1_6.png:norm'
p1905
g79
F1301809150.0
tp1906
a(S'/2_6.png:norm'
p1907
g31
F1301809150.0
tp1908
a(S'/3_6.png:norm'
p1909
g79
F1301809150.0
tp1910
a(S'/4_6.png:norm'
p1911
g31
F1301809150.0
tp1912
a(S'/5_6.png:norm'
p1913
g20
F1301809150.0
tp1914
a(S'/6_6.png:norm'
p1915
g20
F1301809150.0
tp1916
a(S'/7_6.png:norm'
p1917
g20
F1301809150.0
tp1918
a(S'/8_6.png:norm'
p1919
g20
F1301809150.0
tp1920
a(S'/9_6.png:gold'
p1921
g17
F1301809150.0
tp1922
a(S'/1_8.png:norm'
p1923
g79
F1301809383.0
tp1924
a(S'/2_8.png:norm'
p1925
g79
F1301809383.0
tp1926
a(S'/3_8.png:norm'
p1927
g31
F1301809383.0
tp1928
a(S'/4_8.png:norm'
p1929
g31
F1301809383.0
tp1930
a(S'/5_8.png:norm'
p1931
g17
F1301809383.0
tp1932
a(S'/6_8.png:norm'
p1933
g79
F1301809383.0
tp1934
a(S'/7_8.png:norm'
p1935
g79
F1301809383.0
tp1936
a(S'/8_8.png:norm'
p1937
g79
F1301809383.0
tp1938
a(S'/9_8.png:gold'
p1939
g79
F1301809383.0
tp1940
a(S'/1_9.png:norm'
p1941
g17
F1301820485.0
tp1942
a(S'/2_9.png:norm'
p1943
g17
F1301820485.0
tp1944
a(S'/3_9.png:norm'
p1945
g17
F1301820485.0
tp1946
a(S'/4_9.png:norm'
p1947
g17
F1301820485.0
tp1948
a(S'/5_9.png:norm'
p1949
g17
F1301820485.0
tp1950
a(S'/6_9.png:norm'
p1951
g17
F1301820485.0
tp1952
a(S'/7_9.png:norm'
p1953
g17
F1301820485.0
tp1954
a(S'/8_9.png:norm'
p1955
g31
F1301820485.0
tp1956
a(S'/9_9.png:gold'
p1957
g17
F1301820485.0
tp1958
assbsS'AEQFQKONEUR6Q'
p1959
g2
(g3
g4
Ntp1960
Rp1961
(dp1962
g8
I0
sg9
I00
sg10
g1959
sg11
I3
sg12
(dp1963
g14
(lp1964
(S'/4_10.png:norm'
p1965
g17
F1301807173.0
tp1966
a(S'/5_10.png:norm'
p1967
g20
F1301807173.0
tp1968
a(S'/6_10.png:norm'
p1969
g17
F1301807173.0
tp1970
a(S'/7_10.png:norm'
p1971
g20
F1301807173.0
tp1972
a(S'/8_10.png:norm'
p1973
g20
F1301807173.0
tp1974
a(S'/9_10.png:gold'
p1975
g17
F1301807173.0
tp1976
a(S'/4_13.png:norm'
p1977
g20
F1301821511.0
tp1978
a(S'/5_13.png:norm'
p1979
g17
F1301821511.0
tp1980
a(S'/6_13.png:norm'
p1981
g31
F1301821511.0
tp1982
a(S'/7_13.png:norm'
p1983
g31
F1301821511.0
tp1984
a(S'/8_13.png:norm'
p1985
g17
F1301821511.0
tp1986
a(S'/9_13.png:gold'
p1987
g17
F1301821511.0
tp1988
a(S'/1_1.png:norm'
p1989
g20
F1301813806.0
tp1990
a(S'/2_1.png:norm'
p1991
g20
F1301813806.0
tp1992
a(S'/3_1.png:norm'
p1993
g20
F1301813806.0
tp1994
a(S'/4_1.png:norm'
p1995
g20
F1301813806.0
tp1996
a(S'/5_1.png:norm'
p1997
g20
F1301813806.0
tp1998
a(S'/6_1.png:norm'
p1999
g20
F1301813806.0
tp2000
a(S'/7_1.png:norm'
p2001
g68
F1301813806.0
tp2002
a(S'/8_1.png:norm'
p2003
g68
F1301813806.0
tp2004
a(S'/9_1.png:gold'
p2005
g20
F1301813806.0
tp2006
a(S'/1_2.png:norm'
p2007
g79
F1301820212.0
tp2008
a(S'/2_2.png:norm'
p2009
g31
F1301820212.0
tp2010
a(S'/3_2.png:norm'
p2011
g79
F1301820212.0
tp2012
a(S'/4_2.png:norm'
p2013
g79
F1301820212.0
tp2014
a(S'/5_2.png:norm'
p2015
g17
F1301820212.0
tp2016
a(S'/6_2.png:norm'
p2017
g20
F1301820212.0
tp2018
a(S'/7_2.png:norm'
p2019
g31
F1301820212.0
tp2020
a(S'/8_2.png:norm'
p2021
g31
F1301820212.0
tp2022
a(S'/9_2.png:gold'
p2023
g31
F1301820212.0
tp2024
a(S'/1_5.png:norm'
p2025
g79
F1301821265.0
tp2026
a(S'/2_5.png:norm'
p2027
g79
F1301821265.0
tp2028
a(S'/3_5.png:norm'
p2029
g79
F1301821265.0
tp2030
a(S'/4_5.png:norm'
p2031
g31
F1301821265.0
tp2032
a(S'/5_5.png:norm'
p2033
g20
F1301821265.0
tp2034
a(S'/6_5.png:norm'
p2035
g20
F1301821265.0
tp2036
a(S'/7_5.png:norm'
p2037
g20
F1301821265.0
tp2038
a(S'/8_5.png:norm'
p2039
g20
F1301821265.0
tp2040
a(S'/9_5.png:gold'
p2041
g17
F1301821265.0
tp2042
a(S'/1_6.png:norm'
p2043
g31
F1301810358.0
tp2044
a(S'/2_6.png:norm'
p2045
g20
F1301810358.0
tp2046
a(S'/3_6.png:norm'
p2047
g20
F1301810358.0
tp2048
a(S'/4_6.png:norm'
p2049
g79
F1301810358.0
tp2050
a(S'/5_6.png:norm'
p2051
g20
F1301810358.0
tp2052
a(S'/6_6.png:norm'
p2053
g17
F1301810358.0
tp2054
a(S'/7_6.png:norm'
p2055
g68
F1301810358.0
tp2056
a(S'/8_6.png:norm'
p2057
g17
F1301810358.0
tp2058
a(S'/9_6.png:gold'
p2059
g17
F1301810358.0
tp2060
a(S'/1_7.png:norm'
p2061
g79
F1301806794.0
tp2062
a(S'/2_7.png:norm'
p2063
g79
F1301806794.0
tp2064
a(S'/3_7.png:norm'
p2065
g17
F1301806794.0
tp2066
a(S'/4_7.png:norm'
p2067
g17
F1301806794.0
tp2068
a(S'/5_7.png:norm'
p2069
g17
F1301806794.0
tp2070
a(S'/6_7.png:norm'
p2071
g31
F1301806794.0
tp2072
a(S'/7_7.png:norm'
p2073
g79
F1301806794.0
tp2074
a(S'/8_7.png:norm'
p2075
g68
F1301806794.0
tp2076
a(S'/9_7.png:gold'
p2077
g20
F1301806794.0
tp2078
a(S'/1_8.png:norm'
p2079
g20
F1301809577.0
tp2080
a(S'/2_8.png:norm'
p2081
g20
F1301809577.0
tp2082
a(S'/3_8.png:norm'
p2083
g79
F1301809577.0
tp2084
a(S'/4_8.png:norm'
p2085
g20
F1301809577.0
tp2086
a(S'/5_8.png:norm'
p2087
g20
F1301809577.0
tp2088
a(S'/6_8.png:norm'
p2089
g20
F1301809577.0
tp2090
a(S'/7_8.png:norm'
p2091
g20
F1301809577.0
tp2092
a(S'/8_8.png:norm'
p2093
g20
F1301809577.0
tp2094
a(S'/9_8.png:gold'
p2095
g17
F1301809577.0
tp2096
a(S'/1_9.png:norm'
p2097
g79
F1301809138.0
tp2098
a(S'/2_9.png:norm'
p2099
g31
F1301809138.0
tp2100
a(S'/3_9.png:norm'
p2101
g17
F1301809138.0
tp2102
a(S'/4_9.png:norm'
p2103
g68
F1301809138.0
tp2104
a(S'/5_9.png:norm'
p2105
g20
F1301809138.0
tp2106
a(S'/6_9.png:norm'
p2107
g17
F1301809138.0
tp2108
a(S'/7_9.png:norm'
p2109
g20
F1301809138.0
tp2110
a(S'/8_9.png:norm'
p2111
g79
F1301809138.0
tp2112
a(S'/9_9.png:gold'
p2113
g17
F1301809138.0
tp2114
assbsS'A2TAGRKWVK4MC9'
p2115
g2
(g3
g4
Ntp2116
Rp2117
(dp2118
g8
I0
sg9
I00
sg10
g2115
sg11
I10
sg12
(dp2119
g14
(lp2120
(S'/4_10.png:norm'
p2121
g17
F1301727694.0
tp2122
a(S'/5_10.png:norm'
p2123
g17
F1301727694.0
tp2124
a(S'/6_10.png:norm'
p2125
g17
F1301727694.0
tp2126
a(S'/7_10.png:norm'
p2127
g17
F1301727694.0
tp2128
a(S'/8_10.png:norm'
p2129
g17
F1301727694.0
tp2130
a(S'/9_10.png:gold'
p2131
g17
F1301727694.0
tp2132
a(S'/4_11.png:norm'
p2133
g20
F1301727246.0
tp2134
a(S'/5_11.png:norm'
p2135
g20
F1301727246.0
tp2136
a(S'/6_11.png:norm'
p2137
g20
F1301727246.0
tp2138
a(S'/7_11.png:norm'
p2139
g20
F1301727246.0
tp2140
a(S'/8_11.png:norm'
p2141
g20
F1301727246.0
tp2142
a(S'/9_11.png:gold'
p2143
g20
F1301727246.0
tp2144
a(S'/4_12.png:norm'
p2145
g17
F1301727081.0
tp2146
a(S'/5_12.png:norm'
p2147
g20
F1301727081.0
tp2148
a(S'/6_12.png:norm'
p2149
g17
F1301727081.0
tp2150
a(S'/7_12.png:norm'
p2151
g68
F1301727081.0
tp2152
a(S'/8_12.png:norm'
p2153
g17
F1301727081.0
tp2154
a(S'/9_12.png:gold'
p2155
g20
F1301727081.0
tp2156
a(S'/4_13.png:norm'
p2157
g20
F1301729900.0
tp2158
a(S'/5_13.png:norm'
p2159
g31
F1301729900.0
tp2160
a(S'/6_13.png:norm'
p2161
g31
F1301729900.0
tp2162
a(S'/7_13.png:norm'
p2163
g31
F1301729900.0
tp2164
a(S'/8_13.png:norm'
p2165
g31
F1301729900.0
tp2166
a(S'/9_13.png:gold'
p2167
g31
F1301729900.0
tp2168
a(S'/1_14.png:norm'
p2169
g20
F1301729124.0
tp2170
a(S'/2_14.png:norm'
p2171
g20
F1301729124.0
tp2172
a(S'/3_14.png:norm'
p2173
g20
F1301729124.0
tp2174
a(S'/4_14.png:norm'
p2175
g20
F1301729124.0
tp2176
a(S'/5_14.png:norm'
p2177
g20
F1301729124.0
tp2178
a(S'/6_14.png:norm'
p2179
g20
F1301729124.0
tp2180
a(S'/7_14.png:norm'
p2181
g20
F1301729124.0
tp2182
a(S'/8_14.png:norm'
p2183
g20
F1301729124.0
tp2184
a(S'/9_14.png:gold'
p2185
g20
F1301729124.0
tp2186
a(S'/1_1.png:norm'
p2187
g20
F1301729578.0
tp2188
a(S'/2_1.png:norm'
p2189
g17
F1301729578.0
tp2190
a(S'/3_1.png:norm'
p2191
g31
F1301729578.0
tp2192
a(S'/4_1.png:norm'
p2193
g31
F1301729578.0
tp2194
a(S'/5_1.png:norm'
p2195
g31
F1301729578.0
tp2196
a(S'/6_1.png:norm'
p2197
g31
F1301729578.0
tp2198
a(S'/7_1.png:norm'
p2199
g31
F1301729578.0
tp2200
a(S'/8_1.png:norm'
p2201
g31
F1301729578.0
tp2202
a(S'/9_1.png:gold'
p2203
g79
F1301729578.0
tp2204
a(S'/1_2.png:norm'
p2205
g68
F1301730085.0
tp2206
a(S'/2_2.png:norm'
p2207
g68
F1301730085.0
tp2208
a(S'/3_2.png:norm'
p2209
g68
F1301730085.0
tp2210
a(S'/4_2.png:norm'
p2211
g68
F1301730085.0
tp2212
a(S'/5_2.png:norm'
p2213
g68
F1301730085.0
tp2214
a(S'/6_2.png:norm'
p2215
g68
F1301730085.0
tp2216
a(S'/7_2.png:norm'
p2217
g68
F1301730085.0
tp2218
a(S'/8_2.png:norm'
p2219
g68
F1301730085.0
tp2220
a(S'/9_2.png:gold'
p2221
g68
F1301730085.0
tp2222
a(S'/1_3.png:norm'
p2223
g68
F1301728754.0
tp2224
a(S'/2_3.png:norm'
p2225
g68
F1301728754.0
tp2226
a(S'/3_3.png:norm'
p2227
g68
F1301728754.0
tp2228
a(S'/4_3.png:norm'
p2229
g68
F1301728754.0
tp2230
a(S'/5_3.png:norm'
p2231
g68
F1301728754.0
tp2232
a(S'/6_3.png:norm'
p2233
g68
F1301728754.0
tp2234
a(S'/7_3.png:norm'
p2235
g68
F1301728754.0
tp2236
a(S'/8_3.png:norm'
p2237
g68
F1301728754.0
tp2238
a(S'/9_3.png:gold'
p2239
g68
F1301728754.0
tp2240
a(S'/1_5.png:norm'
p2241
g20
F1301728505.0
tp2242
a(S'/2_5.png:norm'
p2243
g20
F1301728505.0
tp2244
a(S'/3_5.png:norm'
p2245
g20
F1301728505.0
tp2246
a(S'/4_5.png:norm'
p2247
g20
F1301728505.0
tp2248
a(S'/5_5.png:norm'
p2249
g20
F1301728505.0
tp2250
a(S'/6_5.png:norm'
p2251
g20
F1301728505.0
tp2252
a(S'/7_5.png:norm'
p2253
g20
F1301728505.0
tp2254
a(S'/8_5.png:norm'
p2255
g20
F1301728505.0
tp2256
a(S'/9_5.png:gold'
p2257
g20
F1301728505.0
tp2258
a(S'/1_7.png:norm'
p2259
g20
F1301727899.0
tp2260
a(S'/2_7.png:norm'
p2261
g20
F1301727899.0
tp2262
a(S'/3_7.png:norm'
p2263
g20
F1301727899.0
tp2264
a(S'/4_7.png:norm'
p2265
g20
F1301727899.0
tp2266
a(S'/5_7.png:norm'
p2267
g20
F1301727899.0
tp2268
a(S'/6_7.png:norm'
p2269
g20
F1301727899.0
tp2270
a(S'/7_7.png:norm'
p2271
g20
F1301727899.0
tp2272
a(S'/8_7.png:norm'
p2273
g20
F1301727899.0
tp2274
a(S'/9_7.png:gold'
p2275
g20
F1301727899.0
tp2276
a(S'/1_9.png:norm'
p2277
g79
F1301728218.0
tp2278
a(S'/2_9.png:norm'
p2279
g79
F1301728218.0
tp2280
a(S'/3_9.png:norm'
p2281
g79
F1301728218.0
tp2282
a(S'/4_9.png:norm'
p2283
g79
F1301728218.0
tp2284
a(S'/5_9.png:norm'
p2285
g79
F1301728218.0
tp2286
a(S'/6_9.png:norm'
p2287
g79
F1301728218.0
tp2288
a(S'/7_9.png:norm'
p2289
g79
F1301728218.0
tp2290
a(S'/8_9.png:norm'
p2291
g79
F1301728218.0
tp2292
a(S'/9_9.png:gold'
p2293
g79
F1301728218.0
tp2294
assbsS'ANCGJ159PH2V1'
p2295
g2
(g3
g4
Ntp2296
Rp2297
(dp2298
g8
I0
sg9
I00
sg10
g2295
sg11
I2
sg12
(dp2299
g14
(lp2300
(S'/4_12.png:norm'
p2301
g31
F1301801006.0
tp2302
a(S'/5_12.png:norm'
p2303
g31
F1301801006.0
tp2304
a(S'/6_12.png:norm'
p2305
g31
F1301801006.0
tp2306
a(S'/7_12.png:norm'
p2307
g31
F1301801006.0
tp2308
a(S'/8_12.png:norm'
p2309
g31
F1301801006.0
tp2310
a(S'/9_12.png:gold'
p2311
g31
F1301801006.0
tp2312
a(S'/1_4.png:norm'
p2313
g79
F1301800972.0
tp2314
a(S'/2_4.png:norm'
p2315
g20
F1301800972.0
tp2316
a(S'/3_4.png:norm'
p2317
g31
F1301800972.0
tp2318
a(S'/4_4.png:norm'
p2319
g79
F1301800972.0
tp2320
a(S'/5_4.png:norm'
p2321
g79
F1301800972.0
tp2322
a(S'/6_4.png:norm'
p2323
g79
F1301800972.0
tp2324
a(S'/7_4.png:norm'
p2325
g79
F1301800972.0
tp2326
a(S'/8_4.png:norm'
p2327
g79
F1301800972.0
tp2328
a(S'/9_4.png:gold'
p2329
g79
F1301800972.0
tp2330
assbsS'A2KGL2FXIG2IQM'
p2331
g2
(g3
g4
Ntp2332
Rp2333
(dp2334
g8
I0
sg9
I00
sg10
g2331
sg11
I14
sg12
(dp2335
g14
(lp2336
(S'/4_10.png:norm'
p2337
g31
F1301727653.0
tp2338
a(S'/5_10.png:norm'
p2339
g31
F1301727653.0
tp2340
a(S'/6_10.png:norm'
p2341
g31
F1301727653.0
tp2342
a(S'/7_10.png:norm'
p2343
g31
F1301727653.0
tp2344
a(S'/8_10.png:norm'
p2345
g31
F1301727653.0
tp2346
a(S'/9_10.png:gold'
p2347
g31
F1301727653.0
tp2348
a(S'/4_11.png:norm'
p2349
g79
F1301727023.0
tp2350
a(S'/5_11.png:norm'
p2351
g79
F1301727023.0
tp2352
a(S'/6_11.png:norm'
p2353
g17
F1301727023.0
tp2354
a(S'/7_11.png:norm'
p2355
g68
F1301727023.0
tp2356
a(S'/8_11.png:norm'
p2357
g20
F1301727023.0
tp2358
a(S'/9_11.png:gold'
p2359
g20
F1301727023.0
tp2360
a(S'/4_12.png:norm'
p2361
g31
F1301730586.0
tp2362
a(S'/5_12.png:norm'
p2363
g31
F1301730586.0
tp2364
a(S'/6_12.png:norm'
p2365
g31
F1301730586.0
tp2366
a(S'/7_12.png:norm'
p2367
g31
F1301730586.0
tp2368
a(S'/8_12.png:norm'
p2369
g31
F1301730586.0
tp2370
a(S'/9_12.png:gold'
p2371
g31
F1301730586.0
tp2372
a(S'/4_13.png:norm'
p2373
g20
F1301730617.0
tp2374
a(S'/5_13.png:norm'
p2375
g20
F1301730617.0
tp2376
a(S'/6_13.png:norm'
p2377
g20
F1301730617.0
tp2378
a(S'/7_13.png:norm'
p2379
g20
F1301730617.0
tp2380
a(S'/8_13.png:norm'
p2381
g20
F1301730617.0
tp2382
a(S'/9_13.png:gold'
p2383
g20
F1301730617.0
tp2384
a(S'/1_14.png:norm'
p2385
g187
F1301728021.0
tp2386
a(S'/2_14.png:norm'
p2387
g1265
F1301728021.0
tp2388
a(S'/3_14.png:norm'
p2389
g1265
F1301728021.0
tp2390
a(S'/4_14.png:norm'
p2391
g187
F1301728021.0
tp2392
a(S'/5_14.png:norm'
p2393
g187
F1301728021.0
tp2394
a(S'/6_14.png:norm'
p2395
g187
F1301728021.0
tp2396
a(S'/7_14.png:norm'
p2397
g187
F1301728021.0
tp2398
a(S'/8_14.png:norm'
p2399
g187
F1301728021.0
tp2400
a(S'/9_14.png:gold'
p2401
g187
F1301728021.0
tp2402
a(S'/1_1.png:norm'
p2403
g20
F1301727149.0
tp2404
a(S'/2_1.png:norm'
p2405
g20
F1301727149.0
tp2406
a(S'/3_1.png:norm'
p2407
g20
F1301727149.0
tp2408
a(S'/4_1.png:norm'
p2409
g20
F1301727149.0
tp2410
a(S'/5_1.png:norm'
p2411
g20
F1301727149.0
tp2412
a(S'/6_1.png:norm'
p2413
g20
F1301727149.0
tp2414
a(S'/7_1.png:norm'
p2415
g20
F1301727149.0
tp2416
a(S'/8_1.png:norm'
p2417
g20
F1301727149.0
tp2418
a(S'/9_1.png:gold'
p2419
g20
F1301727149.0
tp2420
a(S'/1_2.png:norm'
p2421
g68
F1301730496.0
tp2422
a(S'/2_2.png:norm'
p2423
g68
F1301730496.0
tp2424
a(S'/3_2.png:norm'
p2425
g68
F1301730496.0
tp2426
a(S'/4_2.png:norm'
p2427
g20
F1301730496.0
tp2428
a(S'/5_2.png:norm'
p2429
g68
F1301730496.0
tp2430
a(S'/6_2.png:norm'
p2431
g68
F1301730496.0
tp2432
a(S'/7_2.png:norm'
p2433
g68
F1301730496.0
tp2434
a(S'/8_2.png:norm'
p2435
g68
F1301730496.0
tp2436
a(S'/9_2.png:gold'
p2437
g68
F1301730496.0
tp2438
a(S'/1_3.png:norm'
p2439
g20
F1301727912.0
tp2440
a(S'/2_3.png:norm'
p2441
g20
F1301727912.0
tp2442
a(S'/3_3.png:norm'
p2443
g31
F1301727912.0
tp2444
a(S'/4_3.png:norm'
p2445
g79
F1301727912.0
tp2446
a(S'/5_3.png:norm'
p2447
g79
F1301727912.0
tp2448
a(S'/6_3.png:norm'
p2449
g79
F1301727912.0
tp2450
a(S'/7_3.png:norm'
p2451
g68
F1301727912.0
tp2452
a(S'/8_3.png:norm'
p2453
g68
F1301727912.0
tp2454
a(S'/9_3.png:gold'
p2455
g68
F1301727912.0
tp2456
a(S'/1_4.png:norm'
p2457
g79
F1301727844.0
tp2458
a(S'/2_4.png:norm'
p2459
g79
F1301727844.0
tp2460
a(S'/3_4.png:norm'
p2461
g79
F1301727844.0
tp2462
a(S'/4_4.png:norm'
p2463
g79
F1301727844.0
tp2464
a(S'/5_4.png:norm'
p2465
g79
F1301727844.0
tp2466
a(S'/6_4.png:norm'
p2467
g79
F1301727844.0
tp2468
a(S'/7_4.png:norm'
p2469
g79
F1301727844.0
tp2470
a(S'/8_4.png:norm'
p2471
g79
F1301727844.0
tp2472
a(S'/9_4.png:gold'
p2473
g79
F1301727844.0
tp2474
a(S'/1_5.png:norm'
p2475
g79
F1301727520.0
tp2476
a(S'/2_5.png:norm'
p2477
g31
F1301727520.0
tp2478
a(S'/3_5.png:norm'
p2479
g17
F1301727520.0
tp2480
a(S'/4_5.png:norm'
p2481
g31
F1301727520.0
tp2482
a(S'/5_5.png:norm'
p2483
g31
F1301727520.0
tp2484
a(S'/6_5.png:norm'
p2485
g79
F1301727520.0
tp2486
a(S'/7_5.png:norm'
p2487
g20
F1301727520.0
tp2488
a(S'/8_5.png:norm'
p2489
g20
F1301727520.0
tp2490
a(S'/9_5.png:gold'
p2491
g31
F1301727520.0
tp2492
a(S'/1_6.png:norm'
p2493
g31
F1301727714.0
tp2494
a(S'/2_6.png:norm'
p2495
g31
F1301727714.0
tp2496
a(S'/3_6.png:norm'
p2497
g17
F1301727714.0
tp2498
a(S'/4_6.png:norm'
p2499
g17
F1301727714.0
tp2500
a(S'/5_6.png:norm'
p2501
g31
F1301727714.0
tp2502
a(S'/6_6.png:norm'
p2503
g31
F1301727714.0
tp2504
a(S'/7_6.png:norm'
p2505
g31
F1301727714.0
tp2506
a(S'/8_6.png:norm'
p2507
g31
F1301727714.0
tp2508
a(S'/9_6.png:gold'
p2509
g31
F1301727714.0
tp2510
a(S'/1_7.png:norm'
p2511
g79
F1301727786.0
tp2512
a(S'/2_7.png:norm'
p2513
g79
F1301727786.0
tp2514
a(S'/3_7.png:norm'
p2515
g31
F1301727786.0
tp2516
a(S'/4_7.png:norm'
p2517
g31
F1301727786.0
tp2518
a(S'/5_7.png:norm'
p2519
g79
F1301727786.0
tp2520
a(S'/6_7.png:norm'
p2521
g31
F1301727786.0
tp2522
a(S'/7_7.png:norm'
p2523
g31
F1301727786.0
tp2524
a(S'/8_7.png:norm'
p2525
g79
F1301727786.0
tp2526
a(S'/9_7.png:gold'
p2527
g31
F1301727786.0
tp2528
a(S'/1_8.png:norm'
p2529
g20
F1301728517.0
tp2530
a(S'/2_8.png:norm'
p2531
g20
F1301728517.0
tp2532
a(S'/3_8.png:norm'
p2533
g20
F1301728517.0
tp2534
a(S'/4_8.png:norm'
p2535
g20
F1301728517.0
tp2536
a(S'/5_8.png:norm'
p2537
g20
F1301728517.0
tp2538
a(S'/6_8.png:norm'
p2539
g20
F1301728517.0
tp2540
a(S'/7_8.png:norm'
p2541
g20
F1301728517.0
tp2542
a(S'/8_8.png:norm'
p2543
g20
F1301728517.0
tp2544
a(S'/9_8.png:gold'
p2545
g20
F1301728517.0
tp2546
a(S'/1_9.png:norm'
p2547
g20
F1301727571.0
tp2548
a(S'/2_9.png:norm'
p2549
g68
F1301727571.0
tp2550
a(S'/3_9.png:norm'
p2551
g20
F1301727571.0
tp2552
a(S'/4_9.png:norm'
p2553
g20
F1301727571.0
tp2554
a(S'/5_9.png:norm'
p2555
g20
F1301727571.0
tp2556
a(S'/6_9.png:norm'
p2557
g20
F1301727571.0
tp2558
a(S'/7_9.png:norm'
p2559
g20
F1301727571.0
tp2560
a(S'/8_9.png:norm'
p2561
g20
F1301727571.0
tp2562
a(S'/9_9.png:gold'
p2563
g20
F1301727571.0
tp2564
assbsS'A35P96NI78S5LJ'
p2565
g2
(g3
g4
Ntp2566
Rp2567
(dp2568
g8
I0
sg9
I00
sg10
g2565
sg11
I4
sg12
(dp2569
g14
(lp2570
(S'/4_11.png:norm'
p2571
g79
F1301735887.0
tp2572
a(S'/5_11.png:norm'
p2573
g20
F1301735887.0
tp2574
a(S'/6_11.png:norm'
p2575
g31
F1301735887.0
tp2576
a(S'/7_11.png:norm'
p2577
g79
F1301735887.0
tp2578
a(S'/8_11.png:norm'
p2579
g79
F1301735887.0
tp2580
a(S'/9_11.png:gold'
p2581
g17
F1301735887.0
tp2582
a(S'/4_12.png:norm'
p2583
g31
F1301736224.0
tp2584
a(S'/5_12.png:norm'
p2585
g79
F1301736224.0
tp2586
a(S'/6_12.png:norm'
p2587
g31
F1301736224.0
tp2588
a(S'/7_12.png:norm'
p2589
g68
F1301736224.0
tp2590
a(S'/8_12.png:norm'
p2591
g68
F1301736224.0
tp2592
a(S'/9_12.png:gold'
p2593
g79
F1301736224.0
tp2594
a(S'/4_13.png:norm'
p2595
g20
F1301829480.0
tp2596
a(S'/5_13.png:norm'
p2597
g31
F1301829480.0
tp2598
a(S'/6_13.png:norm'
p2599
g31
F1301829480.0
tp2600
a(S'/7_13.png:norm'
p2601
g20
F1301829480.0
tp2602
a(S'/8_13.png:norm'
p2603
g31
F1301829480.0
tp2604
a(S'/9_13.png:gold'
p2605
g31
F1301829480.0
tp2606
a(S'/1_1.png:norm'
p2607
g20
F1301830300.0
tp2608
a(S'/2_1.png:norm'
p2609
g68
F1301830300.0
tp2610
a(S'/3_1.png:norm'
p2611
g20
F1301830300.0
tp2612
a(S'/4_1.png:norm'
p2613
g68
F1301830300.0
tp2614
a(S'/5_1.png:norm'
p2615
g20
F1301830300.0
tp2616
a(S'/6_1.png:norm'
p2617
g68
F1301830300.0
tp2618
a(S'/7_1.png:norm'
p2619
g20
F1301830300.0
tp2620
a(S'/8_1.png:norm'
p2621
g68
F1301830300.0
tp2622
a(S'/9_1.png:gold'
p2623
g17
F1301830300.0
tp2624
a(S'/1_4.png:norm'
p2625
g68
F1301831146.0
tp2626
a(S'/2_4.png:norm'
p2627
g20
F1301831146.0
tp2628
a(S'/3_4.png:norm'
p2629
g20
F1301831146.0
tp2630
a(S'/4_4.png:norm'
p2631
g68
F1301831146.0
tp2632
a(S'/5_4.png:norm'
p2633
g20
F1301831146.0
tp2634
a(S'/6_4.png:norm'
p2635
g68
F1301831146.0
tp2636
a(S'/7_4.png:norm'
p2637
g20
F1301831146.0
tp2638
a(S'/8_4.png:norm'
p2639
g68
F1301831146.0
tp2640
a(S'/9_4.png:gold'
p2641
g79
F1301831146.0
tp2642
a(S'/1_6.png:norm'
p2643
g20
F1301830025.0
tp2644
a(S'/2_6.png:norm'
p2645
g20
F1301830025.0
tp2646
a(S'/3_6.png:norm'
p2647
g79
F1301830025.0
tp2648
a(S'/4_6.png:norm'
p2649
g20
F1301830025.0
tp2650
a(S'/5_6.png:norm'
p2651
g20
F1301830025.0
tp2652
a(S'/6_6.png:norm'
p2653
g31
F1301830025.0
tp2654
a(S'/7_6.png:norm'
p2655
g20
F1301830025.0
tp2656
a(S'/8_6.png:norm'
p2657
g31
F1301830025.0
tp2658
a(S'/9_6.png:gold'
p2659
g31
F1301830025.0
tp2660
assbsS'AFMBK5VENRFDT'
p2661
g2
(g3
g4
Ntp2662
Rp2663
(dp2664
g8
I0
sg9
I00
sg10
g2661
sg11
I1
sg12
(dp2665
g14
(lp2666
(S'/1_14.png:norm'
p2667
g31
F1301820995.0
tp2668
a(S'/2_14.png:norm'
p2669
g17
F1301820995.0
tp2670
a(S'/3_14.png:norm'
p2671
g31
F1301820995.0
tp2672
a(S'/4_14.png:norm'
p2673
g17
F1301820995.0
tp2674
a(S'/5_14.png:norm'
p2675
g31
F1301820995.0
tp2676
a(S'/6_14.png:norm'
p2677
g187
F1301820995.0
tp2678
a(S'/7_14.png:norm'
p2679
g20
F1301820995.0
tp2680
a(S'/8_14.png:norm'
p2681
g17
F1301820995.0
tp2682
a(S'/9_14.png:gold'
p2683
g17
F1301820995.0
tp2684
a(S'/1_5.png:norm'
p2685
g17
F1301820910.0
tp2686
a(S'/2_5.png:norm'
p2687
g79
F1301820910.0
tp2688
a(S'/3_5.png:norm'
p2689
g17
F1301820910.0
tp2690
a(S'/4_5.png:norm'
p2691
g20
F1301820910.0
tp2692
a(S'/5_5.png:norm'
p2693
g20
F1301820910.0
tp2694
a(S'/6_5.png:norm'
p2695
g17
F1301820910.0
tp2696
a(S'/7_5.png:norm'
p2697
g20
F1301820910.0
tp2698
a(S'/8_5.png:norm'
p2699
g20
F1301820910.0
tp2700
a(S'/9_5.png:gold'
p2701
g17
F1301820910.0
tp2702
assbsS'A3IK531XWZGHF5'
p2703
g2
(g3
g4
Ntp2704
Rp2705
(dp2706
g8
I0
sg9
I00
sg10
g2703
sg11
I2
sg12
(dp2707
g14
(lp2708
(S'/1_14.png:norm'
p2709
g178
F1301790477.0
tp2710
a(S'/2_14.png:norm'
p2711
g184
F1301790477.0
tp2712
a(S'/3_14.png:norm'
p2713
g184
F1301790477.0
tp2714
a(S'/4_14.png:norm'
p2715
g31
F1301790477.0
tp2716
a(S'/5_14.png:norm'
p2717
g20
F1301790477.0
tp2718
a(S'/6_14.png:norm'
p2719
g1265
F1301790477.0
tp2720
a(S'/7_14.png:norm'
p2721
g17
F1301790477.0
tp2722
a(S'/8_14.png:norm'
p2723
g20
F1301790477.0
tp2724
a(S'/9_14.png:gold'
p2725
g20
F1301790477.0
tp2726
a(S'/1_1.png:norm'
p2727
g20
F1301790573.0
tp2728
a(S'/2_1.png:norm'
p2729
g68
F1301790573.0
tp2730
a(S'/3_1.png:norm'
p2731
g20
F1301790573.0
tp2732
a(S'/4_1.png:norm'
p2733
g20
F1301790573.0
tp2734
a(S'/5_1.png:norm'
p2735
g20
F1301790573.0
tp2736
a(S'/6_1.png:norm'
p2737
g17
F1301790573.0
tp2738
a(S'/7_1.png:norm'
p2739
g31
F1301790573.0
tp2740
a(S'/8_1.png:norm'
p2741
g20
F1301790573.0
tp2742
a(S'/9_1.png:gold'
p2743
g79
F1301790573.0
tp2744
assbsS'A1YHGBXPIRWFF1'
p2745
g2
(g3
g4
Ntp2746
Rp2747
(dp2748
g8
I0
sg9
I00
sg10
g2745
sg11
I1
sg12
(dp2749
g14
(lp2750
(S'/4_10.png:norm'
p2751
g17
F1301727289.0
tp2752
a(S'/5_10.png:norm'
p2753
g17
F1301727289.0
tp2754
a(S'/6_10.png:norm'
p2755
g79
F1301727289.0
tp2756
a(S'/7_10.png:norm'
p2757
g20
F1301727289.0
tp2758
a(S'/8_10.png:norm'
p2759
g20
F1301727289.0
tp2760
a(S'/9_10.png:gold'
p2761
g68
F1301727289.0
tp2762
a(S'/1_2.png:norm'
p2763
g68
F1301728106.0
tp2764
a(S'/2_2.png:norm'
p2765
g17
F1301728106.0
tp2766
a(S'/3_2.png:norm'
p2767
g31
F1301728106.0
tp2768
a(S'/4_2.png:norm'
p2769
g20
F1301728106.0
tp2770
a(S'/5_2.png:norm'
p2771
g79
F1301728106.0
tp2772
a(S'/6_2.png:norm'
p2773
g20
F1301728106.0
tp2774
a(S'/7_2.png:norm'
p2775
g20
F1301728106.0
tp2776
a(S'/8_2.png:norm'
p2777
g20
F1301728106.0
tp2778
a(S'/9_2.png:gold'
p2779
g17
F1301728106.0
tp2780
assbsS'A1U7H3WTT6RYBD'
p2781
g2
(g3
g4
Ntp2782
Rp2783
(dp2784
g8
I0
sg9
I00
sg10
g2781
sg11
I2
sg12
(dp2785
g14
(lp2786
(S'/1_14.png:norm'
p2787
g1265
F1301891538.0
tp2788
a(S'/2_14.png:norm'
p2789
g20
F1301891538.0
tp2790
a(S'/3_14.png:norm'
p2791
g178
F1301891538.0
tp2792
a(S'/4_14.png:norm'
p2793
g68
F1301891538.0
tp2794
a(S'/5_14.png:norm'
p2795
g68
F1301891538.0
tp2796
a(S'/6_14.png:norm'
p2797
S'10'
p2798
F1301891538.0
tp2799
a(S'/7_14.png:norm'
p2800
g68
F1301891538.0
tp2801
a(S'/8_14.png:norm'
p2802
g20
F1301891538.0
tp2803
a(S'/9_14.png:gold'
p2804
g20
F1301891538.0
tp2805
a(S'/1_8.png:norm'
p2806
g31
F1301891673.0
tp2807
a(S'/2_8.png:norm'
p2808
g79
F1301891673.0
tp2809
a(S'/3_8.png:norm'
p2810
g20
F1301891673.0
tp2811
a(S'/4_8.png:norm'
p2812
g20
F1301891673.0
tp2813
a(S'/5_8.png:norm'
p2814
g20
F1301891673.0
tp2815
a(S'/6_8.png:norm'
p2816
g20
F1301891673.0
tp2817
a(S'/7_8.png:norm'
p2818
g20
F1301891673.0
tp2819
a(S'/8_8.png:norm'
p2820
g68
F1301891673.0
tp2821
a(S'/9_8.png:gold'
p2822
g20
F1301891673.0
tp2823
assbsS'A4TJ2MRXM0GYA'
p2824
g2
(g3
g4
Ntp2825
Rp2826
(dp2827
g8
I0
sg9
I00
sg10
g2824
sg11
I8
sg12
(dp2828
g14
(lp2829
(S'/4_10.png:norm'
p2830
g68
F1301728942.0
tp2831
a(S'/5_10.png:norm'
p2832
g68
F1301728942.0
tp2833
a(S'/6_10.png:norm'
p2834
g20
F1301728942.0
tp2835
a(S'/7_10.png:norm'
p2836
g68
F1301728942.0
tp2837
a(S'/8_10.png:norm'
p2838
g20
F1301728942.0
tp2839
a(S'/9_10.png:gold'
p2840
g68
F1301728942.0
tp2841
a(S'/4_11.png:norm'
p2842
g68
F1301728833.0
tp2843
a(S'/5_11.png:norm'
p2844
g68
F1301728833.0
tp2845
a(S'/6_11.png:norm'
p2846
g20
F1301728833.0
tp2847
a(S'/7_11.png:norm'
p2848
g20
F1301728833.0
tp2849
a(S'/8_11.png:norm'
p2850
g68
F1301728833.0
tp2851
a(S'/9_11.png:gold'
p2852
g68
F1301728833.0
tp2853
a(S'/4_12.png:norm'
p2854
g68
F1301728561.0
tp2855
a(S'/5_12.png:norm'
p2856
g20
F1301728561.0
tp2857
a(S'/6_12.png:norm'
p2858
g79
F1301728561.0
tp2859
a(S'/7_12.png:norm'
p2860
g20
F1301728561.0
tp2861
a(S'/8_12.png:norm'
p2862
g68
F1301728561.0
tp2863
a(S'/9_12.png:gold'
p2864
g68
F1301728561.0
tp2865
a(S'/1_14.png:norm'
p2866
g68
F1301835175.0
tp2867
a(S'/2_14.png:norm'
p2868
g68
F1301835175.0
tp2869
a(S'/3_14.png:norm'
p2870
g68
F1301835175.0
tp2871
a(S'/4_14.png:norm'
p2872
g68
F1301835175.0
tp2873
a(S'/5_14.png:norm'
p2874
g68
F1301835175.0
tp2875
a(S'/6_14.png:norm'
p2876
g68
F1301835175.0
tp2877
a(S'/7_14.png:norm'
p2878
g68
F1301835175.0
tp2879
a(S'/8_14.png:norm'
p2880
g68
F1301835175.0
tp2881
a(S'/9_14.png:gold'
p2882
g68
F1301835175.0
tp2883
a(S'/1_3.png:norm'
p2884
g31
F1301728675.0
tp2885
a(S'/2_3.png:norm'
p2886
g31
F1301728675.0
tp2887
a(S'/3_3.png:norm'
p2888
g31
F1301728675.0
tp2889
a(S'/4_3.png:norm'
p2890
g31
F1301728675.0
tp2891
a(S'/5_3.png:norm'
p2892
g31
F1301728675.0
tp2893
a(S'/6_3.png:norm'
p2894
g31
F1301728675.0
tp2895
a(S'/7_3.png:norm'
p2896
g31
F1301728675.0
tp2897
a(S'/8_3.png:norm'
p2898
g31
F1301728675.0
tp2899
a(S'/9_3.png:gold'
p2900
g20
F1301728675.0
tp2901
a(S'/1_4.png:norm'
p2902
g17
F1301835391.0
tp2903
a(S'/2_4.png:norm'
p2904
g17
F1301835391.0
tp2905
a(S'/3_4.png:norm'
p2906
g17
F1301835391.0
tp2907
a(S'/4_4.png:norm'
p2908
g17
F1301835391.0
tp2909
a(S'/5_4.png:norm'
p2910
g17
F1301835391.0
tp2911
a(S'/6_4.png:norm'
p2912
g17
F1301835391.0
tp2913
a(S'/7_4.png:norm'
p2914
g17
F1301835391.0
tp2915
a(S'/8_4.png:norm'
p2916
g17
F1301835391.0
tp2917
a(S'/9_4.png:gold'
p2918
g17
F1301835391.0
tp2919
a(S'/1_5.png:norm'
p2920
g31
F1301729047.0
tp2921
a(S'/2_5.png:norm'
p2922
g31
F1301729047.0
tp2923
a(S'/3_5.png:norm'
p2924
g31
F1301729047.0
tp2925
a(S'/4_5.png:norm'
p2926
g31
F1301729047.0
tp2927
a(S'/5_5.png:norm'
p2928
g31
F1301729047.0
tp2929
a(S'/6_5.png:norm'
p2930
g31
F1301729047.0
tp2931
a(S'/7_5.png:norm'
p2932
g31
F1301729047.0
tp2933
a(S'/8_5.png:norm'
p2934
g31
F1301729047.0
tp2935
a(S'/9_5.png:gold'
p2936
g31
F1301729047.0
tp2937
a(S'/1_7.png:norm'
p2938
g31
F1301835304.0
tp2939
a(S'/2_7.png:norm'
p2940
g31
F1301835304.0
tp2941
a(S'/3_7.png:norm'
p2942
g31
F1301835304.0
tp2943
a(S'/4_7.png:norm'
p2944
g31
F1301835304.0
tp2945
a(S'/5_7.png:norm'
p2946
g31
F1301835304.0
tp2947
a(S'/6_7.png:norm'
p2948
g31
F1301835304.0
tp2949
a(S'/7_7.png:norm'
p2950
g31
F1301835304.0
tp2951
a(S'/8_7.png:norm'
p2952
g31
F1301835304.0
tp2953
a(S'/9_7.png:gold'
p2954
g31
F1301835304.0
tp2955
a(S'/1_8.png:norm'
p2956
g79
F1301835026.0
tp2957
a(S'/2_8.png:norm'
p2958
g79
F1301835026.0
tp2959
a(S'/3_8.png:norm'
p2960
g20
F1301835026.0
tp2961
a(S'/4_8.png:norm'
p2962
g79
F1301835026.0
tp2963
a(S'/5_8.png:norm'
p2964
g79
F1301835026.0
tp2965
a(S'/6_8.png:norm'
p2966
g79
F1301835026.0
tp2967
a(S'/7_8.png:norm'
p2968
g79
F1301835026.0
tp2969
a(S'/8_8.png:norm'
p2970
g79
F1301835026.0
tp2971
a(S'/9_8.png:gold'
p2972
g79
F1301835026.0
tp2973
assbsS'A1L2WDLUTOIIAP'
p2974
g2
(g3
g4
Ntp2975
Rp2976
(dp2977
g8
I0
sg9
I00
sg10
g2974
sg11
I1
sg12
(dp2978
g14
(lp2979
(S'/4_13.png:norm'
p2980
g20
F1301795336.0
tp2981
a(S'/5_13.png:norm'
p2982
g68
F1301795336.0
tp2983
a(S'/6_13.png:norm'
p2984
g20
F1301795336.0
tp2985
a(S'/7_13.png:norm'
p2986
g20
F1301795336.0
tp2987
a(S'/8_13.png:norm'
p2988
g20
F1301795336.0
tp2989
a(S'/9_13.png:gold'
p2990
g79
F1301795336.0
tp2991
a(S'/1_7.png:norm'
p2992
g20
F1301809814.0
tp2993
a(S'/2_7.png:norm'
p2994
g20
F1301809814.0
tp2995
a(S'/3_7.png:norm'
p2996
g68
F1301809814.0
tp2997
a(S'/4_7.png:norm'
p2998
g68
F1301809814.0
tp2999
a(S'/5_7.png:norm'
p3000
g20
F1301809814.0
tp3001
a(S'/6_7.png:norm'
p3002
g20
F1301809814.0
tp3003
a(S'/7_7.png:norm'
p3004
g17
F1301809814.0
tp3005
a(S'/8_7.png:norm'
p3006
g17
F1301809814.0
tp3007
a(S'/9_7.png:gold'
p3008
g17
F1301809814.0
tp3009
assbsS'ACFBSR55XG1WB'
p3010
g2
(g3
g4
Ntp3011
Rp3012
(dp3013
g8
I0
sg9
I00
sg10
g3010
sg11
I1
sg12
(dp3014
g14
(lp3015
(S'/4_10.png:norm'
p3016
g17
F1301728797.0
tp3017
a(S'/5_10.png:norm'
p3018
g17
F1301728797.0
tp3019
a(S'/6_10.png:norm'
p3020
g17
F1301728797.0
tp3021
a(S'/7_10.png:norm'
p3022
g20
F1301728797.0
tp3023
a(S'/8_10.png:norm'
p3024
g20
F1301728797.0
tp3025
a(S'/9_10.png:gold'
p3026
g17
F1301728797.0
tp3027
a(S'/4_11.png:norm'
p3028
g20
F1301728653.0
tp3029
a(S'/5_11.png:norm'
p3030
g17
F1301728653.0
tp3031
a(S'/6_11.png:norm'
p3032
g17
F1301728653.0
tp3033
a(S'/7_11.png:norm'
p3034
g17
F1301728653.0
tp3035
a(S'/8_11.png:norm'
p3036
g17
F1301728653.0
tp3037
a(S'/9_11.png:gold'
p3038
g17
F1301728653.0
tp3039
a(S'/4_12.png:norm'
p3040
g20
F1301729505.0
tp3041
a(S'/5_12.png:norm'
p3042
g20
F1301729505.0
tp3043
a(S'/6_12.png:norm'
p3044
g17
F1301729505.0
tp3045
a(S'/7_12.png:norm'
p3046
g20
F1301729505.0
tp3047
a(S'/8_12.png:norm'
p3048
g20
F1301729505.0
tp3049
a(S'/9_12.png:gold'
p3050
g17
F1301729505.0
tp3051
a(S'/4_13.png:norm'
p3052
g20
F1301728335.0
tp3053
a(S'/5_13.png:norm'
p3054
g31
F1301728335.0
tp3055
a(S'/6_13.png:norm'
p3056
g79
F1301728335.0
tp3057
a(S'/7_13.png:norm'
p3058
g20
F1301728335.0
tp3059
a(S'/8_13.png:norm'
p3060
g31
F1301728335.0
tp3061
a(S'/9_13.png:gold'
p3062
g17
F1301728335.0
tp3063
a(S'/1_14.png:norm'
p3064
g17
F1301731119.0
tp3065
a(S'/2_14.png:norm'
p3066
g181
F1301731119.0
tp3067
a(S'/3_14.png:norm'
p3068
g181
F1301731119.0
tp3069
a(S'/4_14.png:norm'
p3070
g79
F1301731119.0
tp3071
a(S'/5_14.png:norm'
p3072
g20
F1301731119.0
tp3073
a(S'/6_14.png:norm'
p3074
g187
F1301731119.0
tp3075
a(S'/7_14.png:norm'
p3076
g68
F1301731119.0
tp3077
a(S'/8_14.png:norm'
p3078
g20
F1301731119.0
tp3079
a(S'/9_14.png:gold'
p3080
S'10'
p3081
F1301731119.0
tp3082
a(S'/1_1.png:norm'
p3083
g20
F1301728542.0
tp3084
a(S'/2_1.png:norm'
p3085
g68
F1301728542.0
tp3086
a(S'/3_1.png:norm'
p3087
g20
F1301728542.0
tp3088
a(S'/4_1.png:norm'
p3089
g20
F1301728542.0
tp3090
a(S'/5_1.png:norm'
p3091
g20
F1301728542.0
tp3092
a(S'/6_1.png:norm'
p3093
g20
F1301728542.0
tp3094
a(S'/7_1.png:norm'
p3095
g20
F1301728542.0
tp3096
a(S'/8_1.png:norm'
p3097
g20
F1301728542.0
tp3098
a(S'/9_1.png:gold'
p3099
g17
F1301728542.0
tp3100
a(S'/1_2.png:norm'
p3101
g79
F1301729944.0
tp3102
a(S'/2_2.png:norm'
p3103
g17
F1301729944.0
tp3104
a(S'/3_2.png:norm'
p3105
g17
F1301729944.0
tp3106
a(S'/4_2.png:norm'
p3107
g79
F1301729944.0
tp3108
a(S'/5_2.png:norm'
p3109
g17
F1301729944.0
tp3110
a(S'/6_2.png:norm'
p3111
g79
F1301729944.0
tp3112
a(S'/7_2.png:norm'
p3113
g17
F1301729944.0
tp3114
a(S'/8_2.png:norm'
p3115
g17
F1301729944.0
tp3116
a(S'/9_2.png:gold'
p3117
g17
F1301729944.0
tp3118
a(S'/1_3.png:norm'
p3119
g79
F1301730324.0
tp3120
a(S'/2_3.png:norm'
p3121
g20
F1301730324.0
tp3122
a(S'/3_3.png:norm'
p3123
g20
F1301730324.0
tp3124
a(S'/4_3.png:norm'
p3125
g20
F1301730324.0
tp3126
a(S'/5_3.png:norm'
p3127
g79
F1301730324.0
tp3128
a(S'/6_3.png:norm'
p3129
g17
F1301730324.0
tp3130
a(S'/7_3.png:norm'
p3131
g20
F1301730324.0
tp3132
a(S'/8_3.png:norm'
p3133
g20
F1301730324.0
tp3134
a(S'/9_3.png:gold'
p3135
g17
F1301730324.0
tp3136
a(S'/1_4.png:norm'
p3137
g17
F1301729115.0
tp3138
a(S'/2_4.png:norm'
p3139
g20
F1301729115.0
tp3140
a(S'/3_4.png:norm'
p3141
g17
F1301729115.0
tp3142
a(S'/4_4.png:norm'
p3143
g31
F1301729115.0
tp3144
a(S'/5_4.png:norm'
p3145
g20
F1301729115.0
tp3146
a(S'/6_4.png:norm'
p3147
g17
F1301729115.0
tp3148
a(S'/7_4.png:norm'
p3149
g79
F1301729115.0
tp3150
a(S'/8_4.png:norm'
p3151
g31
F1301729115.0
tp3152
a(S'/9_4.png:gold'
p3153
g17
F1301729115.0
tp3154
a(S'/1_5.png:norm'
p3155
g20
F1301729270.0
tp3156
a(S'/2_5.png:norm'
p3157
g31
F1301729270.0
tp3158
a(S'/3_5.png:norm'
p3159
g31
F1301729270.0
tp3160
a(S'/4_5.png:norm'
p3161
g31
F1301729270.0
tp3162
a(S'/5_5.png:norm'
p3163
g20
F1301729270.0
tp3164
a(S'/6_5.png:norm'
p3165
g20
F1301729270.0
tp3166
a(S'/7_5.png:norm'
p3167
g17
F1301729270.0
tp3168
a(S'/8_5.png:norm'
p3169
g31
F1301729270.0
tp3170
a(S'/9_5.png:gold'
p3171
g17
F1301729270.0
tp3172
a(S'/1_6.png:norm'
p3173
g79
F1301730457.0
tp3174
a(S'/2_6.png:norm'
p3175
g20
F1301730457.0
tp3176
a(S'/3_6.png:norm'
p3177
g17
F1301730457.0
tp3178
a(S'/4_6.png:norm'
p3179
g20
F1301730457.0
tp3180
a(S'/5_6.png:norm'
p3181
g20
F1301730457.0
tp3182
a(S'/6_6.png:norm'
p3183
g17
F1301730457.0
tp3184
a(S'/7_6.png:norm'
p3185
g20
F1301730457.0
tp3186
a(S'/8_6.png:norm'
p3187
g17
F1301730457.0
tp3188
a(S'/9_6.png:gold'
p3189
g17
F1301730457.0
tp3190
a(S'/1_7.png:norm'
p3191
g31
F1301730157.0
tp3192
a(S'/2_7.png:norm'
p3193
g17
F1301730157.0
tp3194
a(S'/3_7.png:norm'
p3195
g17
F1301730157.0
tp3196
a(S'/4_7.png:norm'
p3197
g20
F1301730157.0
tp3198
a(S'/5_7.png:norm'
p3199
g17
F1301730157.0
tp3200
a(S'/6_7.png:norm'
p3201
g17
F1301730157.0
tp3202
a(S'/7_7.png:norm'
p3203
g20
F1301730157.0
tp3204
a(S'/8_7.png:norm'
p3205
g20
F1301730157.0
tp3206
a(S'/9_7.png:gold'
p3207
g17
F1301730157.0
tp3208
a(S'/1_8.png:norm'
p3209
g20
F1301729676.0
tp3210
a(S'/2_8.png:norm'
p3211
g17
F1301729676.0
tp3212
a(S'/3_8.png:norm'
p3213
g31
F1301729676.0
tp3214
a(S'/4_8.png:norm'
p3215
g20
F1301729676.0
tp3216
a(S'/5_8.png:norm'
p3217
g20
F1301729676.0
tp3218
a(S'/6_8.png:norm'
p3219
g79
F1301729676.0
tp3220
a(S'/7_8.png:norm'
p3221
g20
F1301729676.0
tp3222
a(S'/8_8.png:norm'
p3223
g31
F1301729676.0
tp3224
a(S'/9_8.png:gold'
p3225
g17
F1301729676.0
tp3226
a(S'/1_9.png:norm'
p3227
g31
F1301728092.0
tp3228
a(S'/2_9.png:norm'
p3229
g17
F1301728092.0
tp3230
a(S'/3_9.png:norm'
p3231
g17
F1301728092.0
tp3232
a(S'/4_9.png:norm'
p3233
g20
F1301728092.0
tp3234
a(S'/5_9.png:norm'
p3235
g20
F1301728092.0
tp3236
a(S'/6_9.png:norm'
p3237
g17
F1301728092.0
tp3238
a(S'/7_9.png:norm'
p3239
g20
F1301728092.0
tp3240
a(S'/8_9.png:norm'
p3241
g20
F1301728092.0
tp3242
a(S'/9_9.png:gold'
p3243
g17
F1301728092.0
tp3244
assbsS'AL4T99YW3IRHI'
p3245
g2
(g3
g4
Ntp3246
Rp3247
(dp3248
g8
I0
sg9
I00
sg10
g3245
sg11
I1
sg12
(dp3249
g14
(lp3250
(S'/1_5.png:norm'
p3251
g31
F1301744425.0
tp3252
a(S'/2_5.png:norm'
p3253
g31
F1301744425.0
tp3254
a(S'/3_5.png:norm'
p3255
g68
F1301744425.0
tp3256
a(S'/4_5.png:norm'
p3257
g17
F1301744425.0
tp3258
a(S'/5_5.png:norm'
p3259
g79
F1301744425.0
tp3260
a(S'/6_5.png:norm'
p3261
g20
F1301744425.0
tp3262
a(S'/7_5.png:norm'
p3263
g20
F1301744425.0
tp3264
a(S'/8_5.png:norm'
p3265
g68
F1301744425.0
tp3266
a(S'/9_5.png:gold'
p3267
g31
F1301744425.0
tp3268
assbsS'A27F51J27OI1QN'
p3269
g2
(g3
g4
Ntp3270
Rp3271
(dp3272
g8
I0
sg9
I00
sg10
g3269
sg11
I1
sg12
(dp3273
g14
(lp3274
(S'/4_13.png:norm'
p3275
g20
F1301752844.0
tp3276
a(S'/5_13.png:norm'
p3277
g17
F1301752844.0
tp3278
a(S'/6_13.png:norm'
p3279
g79
F1301752844.0
tp3280
a(S'/7_13.png:norm'
p3281
g79
F1301752844.0
tp3282
a(S'/8_13.png:norm'
p3283
g31
F1301752844.0
tp3284
a(S'/9_13.png:gold'
p3285
g17
F1301752844.0
tp3286
a(S'/1_2.png:norm'
p3287
g31
F1301753537.0
tp3288
a(S'/2_2.png:norm'
p3289
g31
F1301753537.0
tp3290
a(S'/3_2.png:norm'
p3291
g79
F1301753537.0
tp3292
a(S'/4_2.png:norm'
p3293
g20
F1301753537.0
tp3294
a(S'/5_2.png:norm'
p3295
g79
F1301753537.0
tp3296
a(S'/6_2.png:norm'
p3297
g20
F1301753537.0
tp3298
a(S'/7_2.png:norm'
p3299
g68
F1301753537.0
tp3300
a(S'/8_2.png:norm'
p3301
g79
F1301753537.0
tp3302
a(S'/9_2.png:gold'
p3303
g79
F1301753537.0
tp3304
a(S'/1_3.png:norm'
p3305
g31
F1301753244.0
tp3306
a(S'/2_3.png:norm'
p3307
g79
F1301753244.0
tp3308
a(S'/3_3.png:norm'
p3309
g79
F1301753244.0
tp3310
a(S'/4_3.png:norm'
p3311
g31
F1301753244.0
tp3312
a(S'/5_3.png:norm'
p3313
g17
F1301753244.0
tp3314
a(S'/6_3.png:norm'
p3315
g17
F1301753244.0
tp3316
a(S'/7_3.png:norm'
p3317
g31
F1301753244.0
tp3318
a(S'/8_3.png:norm'
p3319
g31
F1301753244.0
tp3320
a(S'/9_3.png:gold'
p3321
g17
F1301753244.0
tp3322
assbsS'A16DAZ9UKZL9YJ'
p3323
g2
(g3
g4
Ntp3324
Rp3325
(dp3326
g8
I0
sg9
I00
sg10
g3323
sg11
I1
sg12
(dp3327
g14
(lp3328
(S'/4_12.png:norm'
p3329
g79
F1301819243.0
tp3330
a(S'/5_12.png:norm'
p3331
g68
F1301819243.0
tp3332
a(S'/6_12.png:norm'
p3333
g79
F1301819243.0
tp3334
a(S'/7_12.png:norm'
p3335
g31
F1301819243.0
tp3336
a(S'/8_12.png:norm'
p3337
g68
F1301819243.0
tp3338
a(S'/9_12.png:gold'
p3339
g17
F1301819243.0
tp3340
a(S'/1_5.png:norm'
p3341
g79
F1301823483.0
tp3342
a(S'/2_5.png:norm'
p3343
g31
F1301823483.0
tp3344
a(S'/3_5.png:norm'
p3345
g68
F1301823483.0
tp3346
a(S'/4_5.png:norm'
p3347
g79
F1301823483.0
tp3348
a(S'/5_5.png:norm'
p3349
g68
F1301823483.0
tp3350
a(S'/6_5.png:norm'
p3351
g17
F1301823483.0
tp3352
a(S'/7_5.png:norm'
p3353
g79
F1301823483.0
tp3354
a(S'/8_5.png:norm'
p3355
g68
F1301823483.0
tp3356
a(S'/9_5.png:gold'
p3357
g31
F1301823483.0
tp3358
assbsS'A33KFNNSXQO0VF'
p3359
g2
(g3
g4
Ntp3360
Rp3361
(dp3362
g8
I0
sg9
I00
sg10
g3359
sg11
I3
sg12
(dp3363
g14
(lp3364
(S'/4_13.png:norm'
p3365
g20
F1301831058.0
tp3366
a(S'/5_13.png:norm'
p3367
g20
F1301831058.0
tp3368
a(S'/6_13.png:norm'
p3369
g20
F1301831058.0
tp3370
a(S'/7_13.png:norm'
p3371
g20
F1301831058.0
tp3372
a(S'/8_13.png:norm'
p3373
g20
F1301831058.0
tp3374
a(S'/9_13.png:gold'
p3375
g20
F1301831058.0
tp3376
a(S'/1_14.png:norm'
p3377
g20
F1301831218.0
tp3378
a(S'/2_14.png:norm'
p3379
g20
F1301831218.0
tp3380
a(S'/3_14.png:norm'
p3381
g20
F1301831218.0
tp3382
a(S'/4_14.png:norm'
p3383
g20
F1301831218.0
tp3384
a(S'/5_14.png:norm'
p3385
g20
F1301831218.0
tp3386
a(S'/6_14.png:norm'
p3387
g20
F1301831218.0
tp3388
a(S'/7_14.png:norm'
p3389
g20
F1301831218.0
tp3390
a(S'/8_14.png:norm'
p3391
g20
F1301831218.0
tp3392
a(S'/9_14.png:gold'
p3393
g20
F1301831218.0
tp3394
a(S'/1_4.png:norm'
p3395
g79
F1301830490.0
tp3396
a(S'/2_4.png:norm'
p3397
g20
F1301830490.0
tp3398
a(S'/3_4.png:norm'
p3399
g79
F1301830490.0
tp3400
a(S'/4_4.png:norm'
p3401
g20
F1301830490.0
tp3402
a(S'/5_4.png:norm'
p3403
g79
F1301830490.0
tp3404
a(S'/6_4.png:norm'
p3405
g20
F1301830490.0
tp3406
a(S'/7_4.png:norm'
p3407
g20
F1301830490.0
tp3408
a(S'/8_4.png:norm'
p3409
g20
F1301830490.0
tp3410
a(S'/9_4.png:gold'
p3411
g20
F1301830490.0
tp3412
assbsS'A2SFY9Q8XCK636'
p3413
g2
(g3
g4
Ntp3414
Rp3415
(dp3416
g8
I0
sg9
I00
sg10
g3413
sg11
I0
sg12
(dp3417
g14
(lp3418
(S'/1_6.png:norm'
p3419
g17
F1301758682.0
tp3420
a(S'/2_6.png:norm'
p3421
g20
F1301758682.0
tp3422
a(S'/3_6.png:norm'
p3423
g20
F1301758682.0
tp3424
a(S'/4_6.png:norm'
p3425
g17
F1301758682.0
tp3426
a(S'/5_6.png:norm'
p3427
g20
F1301758682.0
tp3428
a(S'/6_6.png:norm'
p3429
g17
F1301758682.0
tp3430
a(S'/7_6.png:norm'
p3431
g31
F1301758682.0
tp3432
a(S'/8_6.png:norm'
p3433
g17
F1301758682.0
tp3434
a(S'/9_6.png:gold'
p3435
g17
F1301758682.0
tp3436
assbsS'AKEHUNKIP6Z7H'
p3437
g2
(g3
g4
Ntp3438
Rp3439
(dp3440
g8
I0
sg9
I00
sg10
g3437
sg11
I13
sg12
(dp3441
g14
(lp3442
(S'/4_10.png:norm'
p3443
g17
F1301772706.0
tp3444
a(S'/5_10.png:norm'
p3445
g20
F1301772706.0
tp3446
a(S'/6_10.png:norm'
p3447
g20
F1301772706.0
tp3448
a(S'/7_10.png:norm'
p3449
g20
F1301772706.0
tp3450
a(S'/8_10.png:norm'
p3451
g20
F1301772706.0
tp3452
a(S'/9_10.png:gold'
p3453
g20
F1301772706.0
tp3454
a(S'/4_11.png:norm'
p3455
g20
F1301773075.0
tp3456
a(S'/5_11.png:norm'
p3457
g20
F1301773075.0
tp3458
a(S'/6_11.png:norm'
p3459
g20
F1301773075.0
tp3460
a(S'/7_11.png:norm'
p3461
g20
F1301773075.0
tp3462
a(S'/8_11.png:norm'
p3463
g20
F1301773075.0
tp3464
a(S'/9_11.png:gold'
p3465
g20
F1301773075.0
tp3466
a(S'/4_12.png:norm'
p3467
g79
F1301772902.0
tp3468
a(S'/5_12.png:norm'
p3469
g20
F1301772902.0
tp3470
a(S'/6_12.png:norm'
p3471
g20
F1301772902.0
tp3472
a(S'/7_12.png:norm'
p3473
g20
F1301772902.0
tp3474
a(S'/8_12.png:norm'
p3475
g20
F1301772902.0
tp3476
a(S'/9_12.png:gold'
p3477
g20
F1301772902.0
tp3478
a(S'/4_13.png:norm'
p3479
g31
F1301772881.0
tp3480
a(S'/5_13.png:norm'
p3481
g20
F1301772881.0
tp3482
a(S'/6_13.png:norm'
p3483
g20
F1301772881.0
tp3484
a(S'/7_13.png:norm'
p3485
g20
F1301772881.0
tp3486
a(S'/8_13.png:norm'
p3487
g20
F1301772881.0
tp3488
a(S'/9_13.png:gold'
p3489
g20
F1301772881.0
tp3490
a(S'/1_14.png:norm'
p3491
g31
F1301773181.0
tp3492
a(S'/2_14.png:norm'
p3493
g20
F1301773181.0
tp3494
a(S'/3_14.png:norm'
p3495
g187
F1301773181.0
tp3496
a(S'/4_14.png:norm'
p3497
g20
F1301773181.0
tp3498
a(S'/5_14.png:norm'
p3499
g20
F1301773181.0
tp3500
a(S'/6_14.png:norm'
p3501
g20
F1301773181.0
tp3502
a(S'/7_14.png:norm'
p3503
g20
F1301773181.0
tp3504
a(S'/8_14.png:norm'
p3505
g187
F1301773181.0
tp3506
a(S'/9_14.png:gold'
p3507
g20
F1301773181.0
tp3508
a(S'/1_1.png:norm'
p3509
g68
F1301772750.0
tp3510
a(S'/2_1.png:norm'
p3511
g20
F1301772750.0
tp3512
a(S'/3_1.png:norm'
p3513
g20
F1301772750.0
tp3514
a(S'/4_1.png:norm'
p3515
g20
F1301772750.0
tp3516
a(S'/5_1.png:norm'
p3517
g20
F1301772750.0
tp3518
a(S'/6_1.png:norm'
p3519
g20
F1301772750.0
tp3520
a(S'/7_1.png:norm'
p3521
g20
F1301772750.0
tp3522
a(S'/8_1.png:norm'
p3523
g20
F1301772750.0
tp3524
a(S'/9_1.png:gold'
p3525
g20
F1301772750.0
tp3526
a(S'/1_3.png:norm'
p3527
g31
F1301772578.0
tp3528
a(S'/2_3.png:norm'
p3529
g20
F1301772578.0
tp3530
a(S'/3_3.png:norm'
p3531
g31
F1301772578.0
tp3532
a(S'/4_3.png:norm'
p3533
g20
F1301772578.0
tp3534
a(S'/5_3.png:norm'
p3535
g20
F1301772578.0
tp3536
a(S'/6_3.png:norm'
p3537
g20
F1301772578.0
tp3538
a(S'/7_3.png:norm'
p3539
g20
F1301772578.0
tp3540
a(S'/8_3.png:norm'
p3541
g20
F1301772578.0
tp3542
a(S'/9_3.png:gold'
p3543
g20
F1301772578.0
tp3544
a(S'/1_4.png:norm'
p3545
g79
F1301772518.0
tp3546
a(S'/2_4.png:norm'
p3547
g68
F1301772518.0
tp3548
a(S'/3_4.png:norm'
p3549
g20
F1301772518.0
tp3550
a(S'/4_4.png:norm'
p3551
g79
F1301772518.0
tp3552
a(S'/5_4.png:norm'
p3553
g20
F1301772518.0
tp3554
a(S'/6_4.png:norm'
p3555
g20
F1301772518.0
tp3556
a(S'/7_4.png:norm'
p3557
g20
F1301772518.0
tp3558
a(S'/8_4.png:norm'
p3559
g20
F1301772518.0
tp3560
a(S'/9_4.png:gold'
p3561
g20
F1301772518.0
tp3562
a(S'/1_5.png:norm'
p3563
g20
F1301772781.0
tp3564
a(S'/2_5.png:norm'
p3565
g20
F1301772781.0
tp3566
a(S'/3_5.png:norm'
p3567
g20
F1301772781.0
tp3568
a(S'/4_5.png:norm'
p3569
g20
F1301772781.0
tp3570
a(S'/5_5.png:norm'
p3571
g20
F1301772781.0
tp3572
a(S'/6_5.png:norm'
p3573
g20
F1301772781.0
tp3574
a(S'/7_5.png:norm'
p3575
g20
F1301772781.0
tp3576
a(S'/8_5.png:norm'
p3577
g20
F1301772781.0
tp3578
a(S'/9_5.png:gold'
p3579
g20
F1301772781.0
tp3580
a(S'/1_6.png:norm'
p3581
g79
F1301772624.0
tp3582
a(S'/2_6.png:norm'
p3583
g20
F1301772624.0
tp3584
a(S'/3_6.png:norm'
p3585
g20
F1301772624.0
tp3586
a(S'/4_6.png:norm'
p3587
g20
F1301772624.0
tp3588
a(S'/5_6.png:norm'
p3589
g20
F1301772624.0
tp3590
a(S'/6_6.png:norm'
p3591
g20
F1301772624.0
tp3592
a(S'/7_6.png:norm'
p3593
g20
F1301772624.0
tp3594
a(S'/8_6.png:norm'
p3595
g20
F1301772624.0
tp3596
a(S'/9_6.png:gold'
p3597
g20
F1301772624.0
tp3598
a(S'/1_7.png:norm'
p3599
g31
F1301772826.0
tp3600
a(S'/2_7.png:norm'
p3601
g20
F1301772826.0
tp3602
a(S'/3_7.png:norm'
p3603
g20
F1301772826.0
tp3604
a(S'/4_7.png:norm'
p3605
g20
F1301772826.0
tp3606
a(S'/5_7.png:norm'
p3607
g20
F1301772826.0
tp3608
a(S'/6_7.png:norm'
p3609
g20
F1301772826.0
tp3610
a(S'/7_7.png:norm'
p3611
g20
F1301772826.0
tp3612
a(S'/8_7.png:norm'
p3613
g20
F1301772826.0
tp3614
a(S'/9_7.png:gold'
p3615
g20
F1301772826.0
tp3616
a(S'/1_8.png:norm'
p3617
g20
F1301772978.0
tp3618
a(S'/2_8.png:norm'
p3619
g20
F1301772978.0
tp3620
a(S'/3_8.png:norm'
p3621
g20
F1301772978.0
tp3622
a(S'/4_8.png:norm'
p3623
g20
F1301772978.0
tp3624
a(S'/5_8.png:norm'
p3625
g20
F1301772978.0
tp3626
a(S'/6_8.png:norm'
p3627
g20
F1301772978.0
tp3628
a(S'/7_8.png:norm'
p3629
g20
F1301772978.0
tp3630
a(S'/8_8.png:norm'
p3631
g20
F1301772978.0
tp3632
a(S'/9_8.png:gold'
p3633
g20
F1301772978.0
tp3634
a(S'/1_9.png:norm'
p3635
g17
F1301773109.0
tp3636
a(S'/2_9.png:norm'
p3637
g20
F1301773109.0
tp3638
a(S'/3_9.png:norm'
p3639
g20
F1301773109.0
tp3640
a(S'/4_9.png:norm'
p3641
g20
F1301773109.0
tp3642
a(S'/5_9.png:norm'
p3643
g20
F1301773109.0
tp3644
a(S'/6_9.png:norm'
p3645
g20
F1301773109.0
tp3646
a(S'/7_9.png:norm'
p3647
g20
F1301773109.0
tp3648
a(S'/8_9.png:norm'
p3649
g17
F1301773109.0
tp3650
a(S'/9_9.png:gold'
p3651
g20
F1301773109.0
tp3652
assbsS'A2PTPH3BC7LX4O'
p3653
g2
(g3
g4
Ntp3654
Rp3655
(dp3656
g8
I0
sg9
I00
sg10
g3653
sg11
I2
sg12
(dp3657
g14
(lp3658
(S'/1_14.png:norm'
p3659
g187
F1301844910.0
tp3660
a(S'/2_14.png:norm'
p3661
g178
F1301844910.0
tp3662
a(S'/3_14.png:norm'
p3663
g31
F1301844910.0
tp3664
a(S'/4_14.png:norm'
p3665
g1265
F1301844910.0
tp3666
a(S'/5_14.png:norm'
p3667
g181
F1301844910.0
tp3668
a(S'/6_14.png:norm'
p3669
g1265
F1301844910.0
tp3670
a(S'/7_14.png:norm'
p3671
g31
F1301844910.0
tp3672
a(S'/8_14.png:norm'
p3673
g181
F1301844910.0
tp3674
a(S'/9_14.png:gold'
p3675
g17
F1301844910.0
tp3676
a(S'/1_8.png:norm'
p3677
g31
F1301844846.0
tp3678
a(S'/2_8.png:norm'
p3679
g79
F1301844846.0
tp3680
a(S'/3_8.png:norm'
p3681
g17
F1301844846.0
tp3682
a(S'/4_8.png:norm'
p3683
g79
F1301844846.0
tp3684
a(S'/5_8.png:norm'
p3685
g31
F1301844846.0
tp3686
a(S'/6_8.png:norm'
p3687
g17
F1301844846.0
tp3688
a(S'/7_8.png:norm'
p3689
g68
F1301844846.0
tp3690
a(S'/8_8.png:norm'
p3691
g68
F1301844846.0
tp3692
a(S'/9_8.png:gold'
p3693
g31
F1301844846.0
tp3694
assbsS'AX4YNGG6P7A27'
p3695
g2
(g3
g4
Ntp3696
Rp3697
(dp3698
g8
I0
sg9
I00
sg10
g3695
sg11
I0
sg12
(dp3699
g14
(lp3700
(S'/1_7.png:norm'
p3701
g31
F1301818489.0
tp3702
a(S'/2_7.png:norm'
p3703
g31
F1301818489.0
tp3704
a(S'/3_7.png:norm'
p3705
g31
F1301818489.0
tp3706
a(S'/4_7.png:norm'
p3707
g31
F1301818489.0
tp3708
a(S'/5_7.png:norm'
p3709
g31
F1301818489.0
tp3710
a(S'/6_7.png:norm'
p3711
g31
F1301818489.0
tp3712
a(S'/7_7.png:norm'
p3713
g17
F1301818489.0
tp3714
a(S'/8_7.png:norm'
p3715
g17
F1301818489.0
tp3716
a(S'/9_7.png:gold'
p3717
g17
F1301818489.0
tp3718
a(S'/1_9.png:norm'
p3719
g68
F1301818931.0
tp3720
a(S'/2_9.png:norm'
p3721
g79
F1301818931.0
tp3722
a(S'/3_9.png:norm'
p3723
g79
F1301818931.0
tp3724
a(S'/4_9.png:norm'
p3725
g79
F1301818931.0
tp3726
a(S'/5_9.png:norm'
p3727
g79
F1301818931.0
tp3728
a(S'/6_9.png:norm'
p3729
g79
F1301818931.0
tp3730
a(S'/7_9.png:norm'
p3731
g31
F1301818931.0
tp3732
a(S'/8_9.png:norm'
p3733
g68
F1301818931.0
tp3734
a(S'/9_9.png:gold'
p3735
g17
F1301818931.0
tp3736
assbsS'A19FOAX7MSUTEJ'
p3737
g2
(g3
g4
Ntp3738
Rp3739
(dp3740
g8
I0
sg9
I00
sg10
g3737
sg11
I9
sg12
(dp3741
g14
(lp3742
(S'/4_10.png:norm'
p3743
g79
F1301737831.0
tp3744
a(S'/5_10.png:norm'
p3745
g79
F1301737831.0
tp3746
a(S'/6_10.png:norm'
p3747
g79
F1301737831.0
tp3748
a(S'/7_10.png:norm'
p3749
g79
F1301737831.0
tp3750
a(S'/8_10.png:norm'
p3751
g79
F1301737831.0
tp3752
a(S'/9_10.png:gold'
p3753
g79
F1301737831.0
tp3754
a(S'/4_11.png:norm'
p3755
g17
F1301730600.0
tp3756
a(S'/5_11.png:norm'
p3757
g17
F1301730600.0
tp3758
a(S'/6_11.png:norm'
p3759
g17
F1301730600.0
tp3760
a(S'/7_11.png:norm'
p3761
g17
F1301730600.0
tp3762
a(S'/8_11.png:norm'
p3763
g17
F1301730600.0
tp3764
a(S'/9_11.png:gold'
p3765
g17
F1301730600.0
tp3766
a(S'/4_12.png:norm'
p3767
g31
F1301731229.0
tp3768
a(S'/5_12.png:norm'
p3769
g79
F1301731229.0
tp3770
a(S'/6_12.png:norm'
p3771
g79
F1301731229.0
tp3772
a(S'/7_12.png:norm'
p3773
g79
F1301731229.0
tp3774
a(S'/8_12.png:norm'
p3775
g79
F1301731229.0
tp3776
a(S'/9_12.png:gold'
p3777
g79
F1301731229.0
tp3778
a(S'/4_13.png:norm'
p3779
g31
F1301737072.0
tp3780
a(S'/5_13.png:norm'
p3781
g31
F1301737072.0
tp3782
a(S'/6_13.png:norm'
p3783
g31
F1301737072.0
tp3784
a(S'/7_13.png:norm'
p3785
g31
F1301737072.0
tp3786
a(S'/8_13.png:norm'
p3787
g31
F1301737072.0
tp3788
a(S'/9_13.png:gold'
p3789
g31
F1301737072.0
tp3790
a(S'/1_14.png:norm'
p3791
g181
F1301730362.0
tp3792
a(S'/2_14.png:norm'
p3793
g181
F1301730362.0
tp3794
a(S'/3_14.png:norm'
p3795
g1265
F1301730362.0
tp3796
a(S'/4_14.png:norm'
p3797
g187
F1301730362.0
tp3798
a(S'/5_14.png:norm'
p3799
g1265
F1301730362.0
tp3800
a(S'/6_14.png:norm'
p3801
g178
F1301730362.0
tp3802
a(S'/7_14.png:norm'
p3803
g181
F1301730362.0
tp3804
a(S'/8_14.png:norm'
p3805
g178
F1301730362.0
tp3806
a(S'/9_14.png:gold'
p3807
g178
F1301730362.0
tp3808
a(S'/1_1.png:norm'
p3809
g17
F1301736606.0
tp3810
a(S'/2_1.png:norm'
p3811
g17
F1301736606.0
tp3812
a(S'/3_1.png:norm'
p3813
g17
F1301736606.0
tp3814
a(S'/4_1.png:norm'
p3815
g17
F1301736606.0
tp3816
a(S'/5_1.png:norm'
p3817
g17
F1301736606.0
tp3818
a(S'/6_1.png:norm'
p3819
g17
F1301736606.0
tp3820
a(S'/7_1.png:norm'
p3821
g17
F1301736606.0
tp3822
a(S'/8_1.png:norm'
p3823
g17
F1301736606.0
tp3824
a(S'/9_1.png:gold'
p3825
g17
F1301736606.0
tp3826
a(S'/1_2.png:norm'
p3827
g31
F1301730744.0
tp3828
a(S'/2_2.png:norm'
p3829
g31
F1301730744.0
tp3830
a(S'/3_2.png:norm'
p3831
g31
F1301730744.0
tp3832
a(S'/4_2.png:norm'
p3833
g31
F1301730744.0
tp3834
a(S'/5_2.png:norm'
p3835
g31
F1301730744.0
tp3836
a(S'/6_2.png:norm'
p3837
g31
F1301730744.0
tp3838
a(S'/7_2.png:norm'
p3839
g31
F1301730744.0
tp3840
a(S'/8_2.png:norm'
p3841
g31
F1301730744.0
tp3842
a(S'/9_2.png:gold'
p3843
g31
F1301730744.0
tp3844
a(S'/1_3.png:norm'
p3845
g31
F1301731141.0
tp3846
a(S'/2_3.png:norm'
p3847
g31
F1301731141.0
tp3848
a(S'/3_3.png:norm'
p3849
g31
F1301731141.0
tp3850
a(S'/4_3.png:norm'
p3851
g31
F1301731141.0
tp3852
a(S'/5_3.png:norm'
p3853
g31
F1301731141.0
tp3854
a(S'/6_3.png:norm'
p3855
g31
F1301731141.0
tp3856
a(S'/7_3.png:norm'
p3857
g31
F1301731141.0
tp3858
a(S'/8_3.png:norm'
p3859
g31
F1301731141.0
tp3860
a(S'/9_3.png:gold'
p3861
g31
F1301731141.0
tp3862
a(S'/1_4.png:norm'
p3863
g31
F1301731357.0
tp3864
a(S'/2_4.png:norm'
p3865
g31
F1301731357.0
tp3866
a(S'/3_4.png:norm'
p3867
g31
F1301731357.0
tp3868
a(S'/4_4.png:norm'
p3869
g31
F1301731357.0
tp3870
a(S'/5_4.png:norm'
p3871
g31
F1301731357.0
tp3872
a(S'/6_4.png:norm'
p3873
g31
F1301731357.0
tp3874
a(S'/7_4.png:norm'
p3875
g31
F1301731357.0
tp3876
a(S'/8_4.png:norm'
p3877
g31
F1301731357.0
tp3878
a(S'/9_4.png:gold'
p3879
g31
F1301731357.0
tp3880
a(S'/1_5.png:norm'
p3881
g31
F1301738266.0
tp3882
a(S'/2_5.png:norm'
p3883
g31
F1301738266.0
tp3884
a(S'/3_5.png:norm'
p3885
g31
F1301738266.0
tp3886
a(S'/4_5.png:norm'
p3887
g31
F1301738266.0
tp3888
a(S'/5_5.png:norm'
p3889
g31
F1301738266.0
tp3890
a(S'/6_5.png:norm'
p3891
g31
F1301738266.0
tp3892
a(S'/7_5.png:norm'
p3893
g31
F1301738266.0
tp3894
a(S'/8_5.png:norm'
p3895
g31
F1301738266.0
tp3896
a(S'/9_5.png:gold'
p3897
g31
F1301738266.0
tp3898
a(S'/1_6.png:norm'
p3899
g17
F1301736366.0
tp3900
a(S'/2_6.png:norm'
p3901
g17
F1301736366.0
tp3902
a(S'/3_6.png:norm'
p3903
g17
F1301736366.0
tp3904
a(S'/4_6.png:norm'
p3905
g17
F1301736366.0
tp3906
a(S'/5_6.png:norm'
p3907
g17
F1301736366.0
tp3908
a(S'/6_6.png:norm'
p3909
g17
F1301736366.0
tp3910
a(S'/7_6.png:norm'
p3911
g17
F1301736366.0
tp3912
a(S'/8_6.png:norm'
p3913
g17
F1301736366.0
tp3914
a(S'/9_6.png:gold'
p3915
g17
F1301736366.0
tp3916
a(S'/1_7.png:norm'
p3917
g17
F1301737477.0
tp3918
a(S'/2_7.png:norm'
p3919
g17
F1301737477.0
tp3920
a(S'/3_7.png:norm'
p3921
g17
F1301737477.0
tp3922
a(S'/4_7.png:norm'
p3923
g17
F1301737477.0
tp3924
a(S'/5_7.png:norm'
p3925
g17
F1301737477.0
tp3926
a(S'/6_7.png:norm'
p3927
g17
F1301737477.0
tp3928
a(S'/7_7.png:norm'
p3929
g17
F1301737477.0
tp3930
a(S'/8_7.png:norm'
p3931
g17
F1301737477.0
tp3932
a(S'/9_7.png:gold'
p3933
g17
F1301737477.0
tp3934
a(S'/1_8.png:norm'
p3935
g17
F1301730990.0
tp3936
a(S'/2_8.png:norm'
p3937
g17
F1301730990.0
tp3938
a(S'/3_8.png:norm'
p3939
g20
F1301730990.0
tp3940
a(S'/4_8.png:norm'
p3941
g20
F1301730990.0
tp3942
a(S'/5_8.png:norm'
p3943
g17
F1301730990.0
tp3944
a(S'/6_8.png:norm'
p3945
g17
F1301730990.0
tp3946
a(S'/7_8.png:norm'
p3947
g17
F1301730990.0
tp3948
a(S'/8_8.png:norm'
p3949
g17
F1301730990.0
tp3950
a(S'/9_8.png:gold'
p3951
g17
F1301730990.0
tp3952
a(S'/1_9.png:norm'
p3953
g31
F1301737285.0
tp3954
a(S'/2_9.png:norm'
p3955
g31
F1301737285.0
tp3956
a(S'/3_9.png:norm'
p3957
g31
F1301737285.0
tp3958
a(S'/4_9.png:norm'
p3959
g31
F1301737285.0
tp3960
a(S'/5_9.png:norm'
p3961
g31
F1301737285.0
tp3962
a(S'/6_9.png:norm'
p3963
g31
F1301737285.0
tp3964
a(S'/7_9.png:norm'
p3965
g31
F1301737285.0
tp3966
a(S'/8_9.png:norm'
p3967
g31
F1301737285.0
tp3968
a(S'/9_9.png:gold'
p3969
g31
F1301737285.0
tp3970
assbsS'A2CDFGB6WZ9QFA'
p3971
g2
(g3
g4
Ntp3972
Rp3973
(dp3974
g8
I0
sg9
I00
sg10
g3971
sg11
I12
sg12
(dp3975
g14
(lp3976
(S'/4_10.png:norm'
p3977
g31
F1301761128.0
tp3978
a(S'/5_10.png:norm'
p3979
g31
F1301761128.0
tp3980
a(S'/6_10.png:norm'
p3981
g17
F1301761128.0
tp3982
a(S'/7_10.png:norm'
p3983
g31
F1301761128.0
tp3984
a(S'/8_10.png:norm'
p3985
g79
F1301761128.0
tp3986
a(S'/9_10.png:gold'
p3987
g17
F1301761128.0
tp3988
a(S'/4_11.png:norm'
p3989
g31
F1301760765.0
tp3990
a(S'/5_11.png:norm'
p3991
g17
F1301760765.0
tp3992
a(S'/6_11.png:norm'
p3993
g79
F1301760765.0
tp3994
a(S'/7_11.png:norm'
p3995
g79
F1301760765.0
tp3996
a(S'/8_11.png:norm'
p3997
g17
F1301760765.0
tp3998
a(S'/9_11.png:gold'
p3999
g31
F1301760765.0
tp4000
a(S'/4_12.png:norm'
p4001
g31
F1301760793.0
tp4002
a(S'/5_12.png:norm'
p4003
g79
F1301760793.0
tp4004
a(S'/6_12.png:norm'
p4005
g17
F1301760793.0
tp4006
a(S'/7_12.png:norm'
p4007
g31
F1301760793.0
tp4008
a(S'/8_12.png:norm'
p4009
g79
F1301760793.0
tp4010
a(S'/9_12.png:gold'
p4011
g31
F1301760793.0
tp4012
a(S'/4_13.png:norm'
p4013
g31
F1301761313.0
tp4014
a(S'/5_13.png:norm'
p4015
g31
F1301761313.0
tp4016
a(S'/6_13.png:norm'
p4017
g79
F1301761313.0
tp4018
a(S'/7_13.png:norm'
p4019
g31
F1301761313.0
tp4020
a(S'/8_13.png:norm'
p4021
g17
F1301761313.0
tp4022
a(S'/9_13.png:gold'
p4023
g31
F1301761313.0
tp4024
a(S'/1_14.png:norm'
p4025
g178
F1301760828.0
tp4026
a(S'/2_14.png:norm'
p4027
g181
F1301760828.0
tp4028
a(S'/3_14.png:norm'
p4029
g1265
F1301760828.0
tp4030
a(S'/4_14.png:norm'
p4031
g184
F1301760828.0
tp4032
a(S'/5_14.png:norm'
p4033
g178
F1301760828.0
tp4034
a(S'/6_14.png:norm'
p4035
g178
F1301760828.0
tp4036
a(S'/7_14.png:norm'
p4037
g1265
F1301760828.0
tp4038
a(S'/8_14.png:norm'
p4039
g178
F1301760828.0
tp4040
a(S'/9_14.png:gold'
p4041
g181
F1301760828.0
tp4042
a(S'/1_1.png:norm'
p4043
g31
F1301760859.0
tp4044
a(S'/2_1.png:norm'
p4045
g79
F1301760859.0
tp4046
a(S'/3_1.png:norm'
p4047
g31
F1301760859.0
tp4048
a(S'/4_1.png:norm'
p4049
g17
F1301760859.0
tp4050
a(S'/5_1.png:norm'
p4051
g68
F1301760859.0
tp4052
a(S'/6_1.png:norm'
p4053
g31
F1301760859.0
tp4054
a(S'/7_1.png:norm'
p4055
g31
F1301760859.0
tp4056
a(S'/8_1.png:norm'
p4057
g17
F1301760859.0
tp4058
a(S'/9_1.png:gold'
p4059
g17
F1301760859.0
tp4060
a(S'/1_2.png:norm'
p4061
g31
F1301761384.0
tp4062
a(S'/2_2.png:norm'
p4063
g79
F1301761384.0
tp4064
a(S'/3_2.png:norm'
p4065
g31
F1301761384.0
tp4066
a(S'/4_2.png:norm'
p4067
g31
F1301761384.0
tp4068
a(S'/5_2.png:norm'
p4069
g20
F1301761384.0
tp4070
a(S'/6_2.png:norm'
p4071
g31
F1301761384.0
tp4072
a(S'/7_2.png:norm'
p4073
g31
F1301761384.0
tp4074
a(S'/8_2.png:norm'
p4075
g31
F1301761384.0
tp4076
a(S'/9_2.png:gold'
p4077
g31
F1301761384.0
tp4078
a(S'/1_3.png:norm'
p4079
g31
F1301761202.0
tp4080
a(S'/2_3.png:norm'
p4081
g17
F1301761202.0
tp4082
a(S'/3_3.png:norm'
p4083
g79
F1301761202.0
tp4084
a(S'/4_3.png:norm'
p4085
g68
F1301761202.0
tp4086
a(S'/5_3.png:norm'
p4087
g31
F1301761202.0
tp4088
a(S'/6_3.png:norm'
p4089
g79
F1301761202.0
tp4090
a(S'/7_3.png:norm'
p4091
g79
F1301761202.0
tp4092
a(S'/8_3.png:norm'
p4093
g31
F1301761202.0
tp4094
a(S'/9_3.png:gold'
p4095
g31
F1301761202.0
tp4096
a(S'/1_4.png:norm'
p4097
g31
F1301760944.0
tp4098
a(S'/2_4.png:norm'
p4099
g31
F1301760944.0
tp4100
a(S'/3_4.png:norm'
p4101
g79
F1301760944.0
tp4102
a(S'/4_4.png:norm'
p4103
g31
F1301760944.0
tp4104
a(S'/5_4.png:norm'
p4105
g31
F1301760944.0
tp4106
a(S'/6_4.png:norm'
p4107
g31
F1301760944.0
tp4108
a(S'/7_4.png:norm'
p4109
g79
F1301760944.0
tp4110
a(S'/8_4.png:norm'
p4111
g31
F1301760944.0
tp4112
a(S'/9_4.png:gold'
p4113
g79
F1301760944.0
tp4114
a(S'/1_5.png:norm'
p4115
g17
F1301760911.0
tp4116
a(S'/2_5.png:norm'
p4117
g17
F1301760911.0
tp4118
a(S'/3_5.png:norm'
p4119
g31
F1301760911.0
tp4120
a(S'/4_5.png:norm'
p4121
g79
F1301760911.0
tp4122
a(S'/5_5.png:norm'
p4123
g17
F1301760911.0
tp4124
a(S'/6_5.png:norm'
p4125
g31
F1301760911.0
tp4126
a(S'/7_5.png:norm'
p4127
g79
F1301760911.0
tp4128
a(S'/8_5.png:norm'
p4129
g17
F1301760911.0
tp4130
a(S'/9_5.png:gold'
p4131
g79
F1301760911.0
tp4132
a(S'/1_6.png:norm'
p4133
g31
F1301761498.0
tp4134
a(S'/2_6.png:norm'
p4135
g79
F1301761498.0
tp4136
a(S'/3_6.png:norm'
p4137
g79
F1301761498.0
tp4138
a(S'/4_6.png:norm'
p4139
g31
F1301761498.0
tp4140
a(S'/5_6.png:norm'
p4141
g31
F1301761498.0
tp4142
a(S'/6_6.png:norm'
p4143
g31
F1301761498.0
tp4144
a(S'/7_6.png:norm'
p4145
g31
F1301761498.0
tp4146
a(S'/8_6.png:norm'
p4147
g31
F1301761498.0
tp4148
a(S'/9_6.png:gold'
p4149
g31
F1301761498.0
tp4150
a(S'/1_7.png:norm'
p4151
g31
F1301761455.0
tp4152
a(S'/2_7.png:norm'
p4153
g31
F1301761455.0
tp4154
a(S'/3_7.png:norm'
p4155
g31
F1301761455.0
tp4156
a(S'/4_7.png:norm'
p4157
g79
F1301761455.0
tp4158
a(S'/5_7.png:norm'
p4159
g31
F1301761455.0
tp4160
a(S'/6_7.png:norm'
p4161
g31
F1301761455.0
tp4162
a(S'/7_7.png:norm'
p4163
g31
F1301761455.0
tp4164
a(S'/8_7.png:norm'
p4165
g31
F1301761455.0
tp4166
a(S'/9_7.png:gold'
p4167
g31
F1301761455.0
tp4168
a(S'/1_8.png:norm'
p4169
g31
F1301760737.0
tp4170
a(S'/2_8.png:norm'
p4171
g31
F1301760737.0
tp4172
a(S'/3_8.png:norm'
p4173
g31
F1301760737.0
tp4174
a(S'/4_8.png:norm'
p4175
g31
F1301760737.0
tp4176
a(S'/5_8.png:norm'
p4177
g31
F1301760737.0
tp4178
a(S'/6_8.png:norm'
p4179
g31
F1301760737.0
tp4180
a(S'/7_8.png:norm'
p4181
g31
F1301760737.0
tp4182
a(S'/8_8.png:norm'
p4183
g31
F1301760737.0
tp4184
a(S'/9_8.png:gold'
p4185
g31
F1301760737.0
tp4186
a(S'/1_9.png:norm'
p4187
g68
F1301761057.0
tp4188
a(S'/2_9.png:norm'
p4189
g68
F1301761057.0
tp4190
a(S'/3_9.png:norm'
p4191
g79
F1301761057.0
tp4192
a(S'/4_9.png:norm'
p4193
g68
F1301761057.0
tp4194
a(S'/5_9.png:norm'
p4195
g79
F1301761057.0
tp4196
a(S'/6_9.png:norm'
p4197
g68
F1301761057.0
tp4198
a(S'/7_9.png:norm'
p4199
g79
F1301761057.0
tp4200
a(S'/8_9.png:norm'
p4201
g79
F1301761057.0
tp4202
a(S'/9_9.png:gold'
p4203
g79
F1301761057.0
tp4204
assbsS'A2665261QTOM5N'
p4205
g2
(g3
g4
Ntp4206
Rp4207
(dp4208
g8
I0
sg9
I00
sg10
g4205
sg11
I0
sg12
(dp4209
g14
(lp4210
(S'/1_2.png:norm'
p4211
g17
F1301732268.0
tp4212
a(S'/2_2.png:norm'
p4213
g31
F1301732268.0
tp4214
a(S'/3_2.png:norm'
p4215
g79
F1301732268.0
tp4216
a(S'/4_2.png:norm'
p4217
g31
F1301732268.0
tp4218
a(S'/5_2.png:norm'
p4219
g31
F1301732268.0
tp4220
a(S'/6_2.png:norm'
p4221
g17
F1301732268.0
tp4222
a(S'/7_2.png:norm'
p4223
g17
F1301732268.0
tp4224
a(S'/8_2.png:norm'
p4225
g79
F1301732268.0
tp4226
a(S'/9_2.png:gold'
p4227
g17
F1301732268.0
tp4228
assbsS'AU1NA8C4MIPRJ'
p4229
g2
(g3
g4
Ntp4230
Rp4231
(dp4232
g8
I0
sg9
I00
sg10
g4229
sg11
I1
sg12
(dp4233
g14
(lp4234
(S'/4_13.png:norm'
p4235
g20
F1301790280.0
tp4236
a(S'/5_13.png:norm'
p4237
g17
F1301790280.0
tp4238
a(S'/6_13.png:norm'
p4239
g17
F1301790280.0
tp4240
a(S'/7_13.png:norm'
p4241
g79
F1301790280.0
tp4242
a(S'/8_13.png:norm'
p4243
g31
F1301790280.0
tp4244
a(S'/9_13.png:gold'
p4245
g31
F1301790280.0
tp4246
a(S'/1_6.png:norm'
p4247
g79
F1301790198.0
tp4248
a(S'/2_6.png:norm'
p4249
g20
F1301790198.0
tp4250
a(S'/3_6.png:norm'
p4251
g17
F1301790198.0
tp4252
a(S'/4_6.png:norm'
p4253
g79
F1301790198.0
tp4254
a(S'/5_6.png:norm'
p4255
g20
F1301790198.0
tp4256
a(S'/6_6.png:norm'
p4257
g17
F1301790198.0
tp4258
a(S'/7_6.png:norm'
p4259
g68
F1301790198.0
tp4260
a(S'/8_6.png:norm'
p4261
g17
F1301790198.0
tp4262
a(S'/9_6.png:gold'
p4263
g17
F1301790198.0
tp4264
assbsS'A2D27SR7TDQSMD'
p4265
g2
(g3
g4
Ntp4266
Rp4267
(dp4268
g8
I0
sg9
I00
sg10
g4265
sg11
I0
sg12
(dp4269
g14
(lp4270
(S'/4_10.png:norm'
p4271
g17
F1301741585.0
tp4272
a(S'/5_10.png:norm'
p4273
g17
F1301741585.0
tp4274
a(S'/6_10.png:norm'
p4275
g17
F1301741585.0
tp4276
a(S'/7_10.png:norm'
p4277
g17
F1301741585.0
tp4278
a(S'/8_10.png:norm'
p4279
g17
F1301741585.0
tp4280
a(S'/9_10.png:gold'
p4281
g17
F1301741585.0
tp4282
assbsS'A23T87JDC2TU1D'
p4283
g2
(g3
g4
Ntp4284
Rp4285
(dp4286
g8
I0
sg9
I00
sg10
g4283
sg11
I1
sg12
(dp4287
g14
(lp4288
(S'/4_12.png:norm'
p4289
g68
F1301726945.0
tp4290
a(S'/5_12.png:norm'
p4291
g20
F1301726945.0
tp4292
a(S'/6_12.png:norm'
p4293
g20
F1301726945.0
tp4294
a(S'/7_12.png:norm'
p4295
g79
F1301726945.0
tp4296
a(S'/8_12.png:norm'
p4297
g31
F1301726945.0
tp4298
a(S'/9_12.png:gold'
p4299
g20
F1301726945.0
tp4300
assbsS'A19QR15DB7SMSS'
p4301
g2
(g3
g4
Ntp4302
Rp4303
(dp4304
g8
I0
sg9
I00
sg10
g4301
sg11
I2
sg12
(dp4305
g14
(lp4306
(S'/1_3.png:norm'
p4307
g79
F1301735050.0
tp4308
a(S'/2_3.png:norm'
p4309
g68
F1301735050.0
tp4310
a(S'/3_3.png:norm'
p4311
g68
F1301735050.0
tp4312
a(S'/4_3.png:norm'
p4313
g20
F1301735050.0
tp4314
a(S'/5_3.png:norm'
p4315
g79
F1301735050.0
tp4316
a(S'/6_3.png:norm'
p4317
g17
F1301735050.0
tp4318
a(S'/7_3.png:norm'
p4319
g17
F1301735050.0
tp4320
a(S'/8_3.png:norm'
p4321
g17
F1301735050.0
tp4322
a(S'/9_3.png:gold'
p4323
g17
F1301735050.0
tp4324
a(S'/1_6.png:norm'
p4325
g20
F1301735230.0
tp4326
a(S'/2_6.png:norm'
p4327
g20
F1301735230.0
tp4328
a(S'/3_6.png:norm'
p4329
g17
F1301735230.0
tp4330
a(S'/4_6.png:norm'
p4331
g79
F1301735230.0
tp4332
a(S'/5_6.png:norm'
p4333
g20
F1301735230.0
tp4334
a(S'/6_6.png:norm'
p4335
g17
F1301735230.0
tp4336
a(S'/7_6.png:norm'
p4337
g20
F1301735230.0
tp4338
a(S'/8_6.png:norm'
p4339
g31
F1301735230.0
tp4340
a(S'/9_6.png:gold'
p4341
g17
F1301735230.0
tp4342
a(S'/1_7.png:norm'
p4343
g20
F1301735120.0
tp4344
a(S'/2_7.png:norm'
p4345
g20
F1301735120.0
tp4346
a(S'/3_7.png:norm'
p4347
g20
F1301735120.0
tp4348
a(S'/4_7.png:norm'
p4349
g20
F1301735120.0
tp4350
a(S'/5_7.png:norm'
p4351
g20
F1301735120.0
tp4352
a(S'/6_7.png:norm'
p4353
g20
F1301735120.0
tp4354
a(S'/7_7.png:norm'
p4355
g20
F1301735120.0
tp4356
a(S'/8_7.png:norm'
p4357
g20
F1301735120.0
tp4358
a(S'/9_7.png:gold'
p4359
g20
F1301735120.0
tp4360
a(S'/1_8.png:norm'
p4361
g20
F1301735093.0
tp4362
a(S'/2_8.png:norm'
p4363
g20
F1301735093.0
tp4364
a(S'/3_8.png:norm'
p4365
g20
F1301735093.0
tp4366
a(S'/4_8.png:norm'
p4367
g20
F1301735093.0
tp4368
a(S'/5_8.png:norm'
p4369
g20
F1301735093.0
tp4370
a(S'/6_8.png:norm'
p4371
g20
F1301735093.0
tp4372
a(S'/7_8.png:norm'
p4373
g20
F1301735093.0
tp4374
a(S'/8_8.png:norm'
p4375
g20
F1301735093.0
tp4376
a(S'/9_8.png:gold'
p4377
g20
F1301735093.0
tp4378
a(S'/1_9.png:norm'
p4379
g79
F1301735398.0
tp4380
a(S'/2_9.png:norm'
p4381
g20
F1301735398.0
tp4382
a(S'/3_9.png:norm'
p4383
g17
F1301735398.0
tp4384
a(S'/4_9.png:norm'
p4385
g20
F1301735398.0
tp4386
a(S'/5_9.png:norm'
p4387
g20
F1301735398.0
tp4388
a(S'/6_9.png:norm'
p4389
g17
F1301735398.0
tp4390
a(S'/7_9.png:norm'
p4391
g20
F1301735398.0
tp4392
a(S'/8_9.png:norm'
p4393
g20
F1301735398.0
tp4394
a(S'/9_9.png:gold'
p4395
g17
F1301735398.0
tp4396
assbsS'A3RPJ7B9LAKV6B'
p4397
g2
(g3
g4
Ntp4398
Rp4399
(dp4400
g8
I0
sg9
I00
sg10
g4397
sg11
I1
sg12
(dp4401
g14
(lp4402
(S'/4_10.png:norm'
p4403
g17
F1301741926.0
tp4404
a(S'/5_10.png:norm'
p4405
g31
F1301741926.0
tp4406
a(S'/6_10.png:norm'
p4407
g17
F1301741926.0
tp4408
a(S'/7_10.png:norm'
p4409
g20
F1301741926.0
tp4410
a(S'/8_10.png:norm'
p4411
g20
F1301741926.0
tp4412
a(S'/9_10.png:gold'
p4413
g20
F1301741926.0
tp4414
assbsS'A2F77I9GNK2CBI'
p4415
g2
(g3
g4
Ntp4416
Rp4417
(dp4418
g8
I0
sg9
I00
sg10
g4415
sg11
I2
sg12
(dp4419
g14
(lp4420
(S'/1_8.png:norm'
p4421
g20
F1301828033.0
tp4422
a(S'/2_8.png:norm'
p4423
g20
F1301828033.0
tp4424
a(S'/3_8.png:norm'
p4425
g20
F1301828033.0
tp4426
a(S'/4_8.png:norm'
p4427
g20
F1301828033.0
tp4428
a(S'/5_8.png:norm'
p4429
g20
F1301828033.0
tp4430
a(S'/6_8.png:norm'
p4431
g20
F1301828033.0
tp4432
a(S'/7_8.png:norm'
p4433
g20
F1301828033.0
tp4434
a(S'/8_8.png:norm'
p4435
g20
F1301828033.0
tp4436
a(S'/9_8.png:gold'
p4437
g20
F1301828033.0
tp4438
a(S'/1_9.png:norm'
p4439
g31
F1301828452.0
tp4440
a(S'/2_9.png:norm'
p4441
g31
F1301828452.0
tp4442
a(S'/3_9.png:norm'
p4443
g31
F1301828452.0
tp4444
a(S'/4_9.png:norm'
p4445
g20
F1301828452.0
tp4446
a(S'/5_9.png:norm'
p4447
g20
F1301828452.0
tp4448
a(S'/6_9.png:norm'
p4449
g20
F1301828452.0
tp4450
a(S'/7_9.png:norm'
p4451
g31
F1301828452.0
tp4452
a(S'/8_9.png:norm'
p4453
g20
F1301828452.0
tp4454
a(S'/9_9.png:gold'
p4455
g20
F1301828452.0
tp4456
assbsS'A2JBJFPFG38X9C'
p4457
g2
(g3
g4
Ntp4458
Rp4459
(dp4460
g8
I0
sg9
I00
sg10
g4457
sg11
I2
sg12
(dp4461
g14
(lp4462
(S'/1_4.png:norm'
p4463
g20
F1301745207.0
tp4464
a(S'/2_4.png:norm'
p4465
g20
F1301745207.0
tp4466
a(S'/3_4.png:norm'
p4467
g31
F1301745207.0
tp4468
a(S'/4_4.png:norm'
p4469
g31
F1301745207.0
tp4470
a(S'/5_4.png:norm'
p4471
g20
F1301745207.0
tp4472
a(S'/6_4.png:norm'
p4473
g31
F1301745207.0
tp4474
a(S'/7_4.png:norm'
p4475
g31
F1301745207.0
tp4476
a(S'/8_4.png:norm'
p4477
g20
F1301745207.0
tp4478
a(S'/9_4.png:gold'
p4479
g20
F1301745207.0
tp4480
a(S'/1_6.png:norm'
p4481
g79
F1301745083.0
tp4482
a(S'/2_6.png:norm'
p4483
g79
F1301745083.0
tp4484
a(S'/3_6.png:norm'
p4485
g17
F1301745083.0
tp4486
a(S'/4_6.png:norm'
p4487
g68
F1301745083.0
tp4488
a(S'/5_6.png:norm'
p4489
g79
F1301745083.0
tp4490
a(S'/6_6.png:norm'
p4491
g31
F1301745083.0
tp4492
a(S'/7_6.png:norm'
p4493
g31
F1301745083.0
tp4494
a(S'/8_6.png:norm'
p4495
g20
F1301745083.0
tp4496
a(S'/9_6.png:gold'
p4497
g20
F1301745083.0
tp4498
assbsS'A3BAV2DNV48IKE'
p4499
g2
(g3
g4
Ntp4500
Rp4501
(dp4502
g8
I0
sg9
I00
sg10
g4499
sg11
I2
sg12
(dp4503
g14
(lp4504
(S'/1_14.png:norm'
p4505
g17
F1301897077.0
tp4506
a(S'/2_14.png:norm'
p4507
g187
F1301897077.0
tp4508
a(S'/3_14.png:norm'
p4509
g1265
F1301897077.0
tp4510
a(S'/4_14.png:norm'
p4511
g178
F1301897077.0
tp4512
a(S'/5_14.png:norm'
p4513
g184
F1301897077.0
tp4514
a(S'/6_14.png:norm'
p4515
g20
F1301897077.0
tp4516
a(S'/7_14.png:norm'
p4517
g178
F1301897077.0
tp4518
a(S'/8_14.png:norm'
p4519
S'10'
p4520
F1301897077.0
tp4521
a(S'/9_14.png:gold'
p4522
g31
F1301897077.0
tp4523
a(S'/1_8.png:norm'
p4524
g79
F1301897030.0
tp4525
a(S'/2_8.png:norm'
p4526
g31
F1301897030.0
tp4527
a(S'/3_8.png:norm'
p4528
g31
F1301897030.0
tp4529
a(S'/4_8.png:norm'
p4530
g79
F1301897030.0
tp4531
a(S'/5_8.png:norm'
p4532
g79
F1301897030.0
tp4533
a(S'/6_8.png:norm'
p4534
g31
F1301897030.0
tp4535
a(S'/7_8.png:norm'
p4536
g17
F1301897030.0
tp4537
a(S'/8_8.png:norm'
p4538
g79
F1301897030.0
tp4539
a(S'/9_8.png:gold'
p4540
g31
F1301897030.0
tp4541
assbsS'A1WT0XCQH93X9B'
p4542
g2
(g3
g4
Ntp4543
Rp4544
(dp4545
g8
I0
sg9
I00
sg10
g4542
sg11
I10
sg12
(dp4546
g14
(lp4547
(S'/4_11.png:norm'
p4548
g20
F1301805904.0
tp4549
a(S'/5_11.png:norm'
p4550
g20
F1301805904.0
tp4551
a(S'/6_11.png:norm'
p4552
g20
F1301805904.0
tp4553
a(S'/7_11.png:norm'
p4554
g20
F1301805904.0
tp4555
a(S'/8_11.png:norm'
p4556
g20
F1301805904.0
tp4557
a(S'/9_11.png:gold'
p4558
g20
F1301805904.0
tp4559
a(S'/4_12.png:norm'
p4560
g20
F1301805829.0
tp4561
a(S'/5_12.png:norm'
p4562
g20
F1301805829.0
tp4563
a(S'/6_12.png:norm'
p4564
g20
F1301805829.0
tp4565
a(S'/7_12.png:norm'
p4566
g20
F1301805829.0
tp4567
a(S'/8_12.png:norm'
p4568
g20
F1301805829.0
tp4569
a(S'/9_12.png:gold'
p4570
g20
F1301805829.0
tp4571
a(S'/1_14.png:norm'
p4572
g178
F1301806279.0
tp4573
a(S'/2_14.png:norm'
p4574
g178
F1301806279.0
tp4575
a(S'/3_14.png:norm'
p4576
g178
F1301806279.0
tp4577
a(S'/4_14.png:norm'
p4578
g178
F1301806279.0
tp4579
a(S'/5_14.png:norm'
p4580
g178
F1301806279.0
tp4581
a(S'/6_14.png:norm'
p4582
g178
F1301806279.0
tp4583
a(S'/7_14.png:norm'
p4584
g178
F1301806279.0
tp4585
a(S'/8_14.png:norm'
p4586
g178
F1301806279.0
tp4587
a(S'/9_14.png:gold'
p4588
g178
F1301806279.0
tp4589
a(S'/1_1.png:norm'
p4590
g79
F1301805454.0
tp4591
a(S'/2_1.png:norm'
p4592
g20
F1301805454.0
tp4593
a(S'/3_1.png:norm'
p4594
g79
F1301805454.0
tp4595
a(S'/4_1.png:norm'
p4596
g79
F1301805454.0
tp4597
a(S'/5_1.png:norm'
p4598
g79
F1301805454.0
tp4599
a(S'/6_1.png:norm'
p4600
g79
F1301805454.0
tp4601
a(S'/7_1.png:norm'
p4602
g31
F1301805454.0
tp4603
a(S'/8_1.png:norm'
p4604
g17
F1301805454.0
tp4605
a(S'/9_1.png:gold'
p4606
g31
F1301805454.0
tp4607
a(S'/1_2.png:norm'
p4608
g31
F1301805251.0
tp4609
a(S'/2_2.png:norm'
p4610
g31
F1301805251.0
tp4611
a(S'/3_2.png:norm'
p4612
g79
F1301805251.0
tp4613
a(S'/4_2.png:norm'
p4614
g68
F1301805251.0
tp4615
a(S'/5_2.png:norm'
p4616
g20
F1301805251.0
tp4617
a(S'/6_2.png:norm'
p4618
g20
F1301805251.0
tp4619
a(S'/7_2.png:norm'
p4620
g17
F1301805251.0
tp4621
a(S'/8_2.png:norm'
p4622
g31
F1301805251.0
tp4623
a(S'/9_2.png:gold'
p4624
g20
F1301805251.0
tp4625
a(S'/1_3.png:norm'
p4626
g79
F1301805583.0
tp4627
a(S'/2_3.png:norm'
p4628
g79
F1301805583.0
tp4629
a(S'/3_3.png:norm'
p4630
g79
F1301805583.0
tp4631
a(S'/4_3.png:norm'
p4632
g20
F1301805583.0
tp4633
a(S'/5_3.png:norm'
p4634
g68
F1301805583.0
tp4635
a(S'/6_3.png:norm'
p4636
g68
F1301805583.0
tp4637
a(S'/7_3.png:norm'
p4638
g17
F1301805583.0
tp4639
a(S'/8_3.png:norm'
p4640
g79
F1301805583.0
tp4641
a(S'/9_3.png:gold'
p4642
g79
F1301805583.0
tp4643
a(S'/1_4.png:norm'
p4644
g31
F1301805681.0
tp4645
a(S'/2_4.png:norm'
p4646
g31
F1301805681.0
tp4647
a(S'/3_4.png:norm'
p4648
g31
F1301805681.0
tp4649
a(S'/4_4.png:norm'
p4650
g79
F1301805681.0
tp4651
a(S'/5_4.png:norm'
p4652
g79
F1301805681.0
tp4653
a(S'/6_4.png:norm'
p4654
g68
F1301805681.0
tp4655
a(S'/7_4.png:norm'
p4656
g20
F1301805681.0
tp4657
a(S'/8_4.png:norm'
p4658
g17
F1301805681.0
tp4659
a(S'/9_4.png:gold'
p4660
g20
F1301805681.0
tp4661
a(S'/1_7.png:norm'
p4662
g31
F1301806467.0
tp4663
a(S'/2_7.png:norm'
p4664
g31
F1301806467.0
tp4665
a(S'/3_7.png:norm'
p4666
g31
F1301806467.0
tp4667
a(S'/4_7.png:norm'
p4668
g20
F1301806467.0
tp4669
a(S'/5_7.png:norm'
p4670
g20
F1301806467.0
tp4671
a(S'/6_7.png:norm'
p4672
g20
F1301806467.0
tp4673
a(S'/7_7.png:norm'
p4674
g20
F1301806467.0
tp4675
a(S'/8_7.png:norm'
p4676
g68
F1301806467.0
tp4677
a(S'/9_7.png:gold'
p4678
g20
F1301806467.0
tp4679
a(S'/1_8.png:norm'
p4680
g79
F1301806045.0
tp4681
a(S'/2_8.png:norm'
p4682
g79
F1301806045.0
tp4683
a(S'/3_8.png:norm'
p4684
g79
F1301806045.0
tp4685
a(S'/4_8.png:norm'
p4686
g79
F1301806045.0
tp4687
a(S'/5_8.png:norm'
p4688
g20
F1301806045.0
tp4689
a(S'/6_8.png:norm'
p4690
g79
F1301806045.0
tp4691
a(S'/7_8.png:norm'
p4692
g79
F1301806045.0
tp4693
a(S'/8_8.png:norm'
p4694
g79
F1301806045.0
tp4695
a(S'/9_8.png:gold'
p4696
g79
F1301806045.0
tp4697
a(S'/1_9.png:norm'
p4698
g20
F1301806357.0
tp4699
a(S'/2_9.png:norm'
p4700
g20
F1301806357.0
tp4701
a(S'/3_9.png:norm'
p4702
g20
F1301806357.0
tp4703
a(S'/4_9.png:norm'
p4704
g20
F1301806357.0
tp4705
a(S'/5_9.png:norm'
p4706
g20
F1301806357.0
tp4707
a(S'/6_9.png:norm'
p4708
g20
F1301806357.0
tp4709
a(S'/7_9.png:norm'
p4710
g20
F1301806357.0
tp4711
a(S'/8_9.png:norm'
p4712
g31
F1301806357.0
tp4713
a(S'/9_9.png:gold'
p4714
g31
F1301806357.0
tp4715
assbsS'A1B6HGJ6RDKPIQ'
p4716
g2
(g3
g4
Ntp4717
Rp4718
(dp4719
g8
I0
sg9
I00
sg10
g4716
sg11
I0
sg12
(dp4720
g14
(lp4721
(S'/1_7.png:norm'
p4722
g17
F1301803860.0
tp4723
a(S'/2_7.png:norm'
p4724
g17
F1301803860.0
tp4725
a(S'/3_7.png:norm'
p4726
g17
F1301803860.0
tp4727
a(S'/4_7.png:norm'
p4728
g68
F1301803860.0
tp4729
a(S'/5_7.png:norm'
p4730
g17
F1301803860.0
tp4731
a(S'/6_7.png:norm'
p4732
g17
F1301803860.0
tp4733
a(S'/7_7.png:norm'
p4734
g17
F1301803860.0
tp4735
a(S'/8_7.png:norm'
p4736
g17
F1301803860.0
tp4737
a(S'/9_7.png:gold'
p4738
g17
F1301803860.0
tp4739
assbsS'A2MZ9GB1QR6PYK'
p4740
g2
(g3
g4
Ntp4741
Rp4742
(dp4743
g8
I0
sg9
I00
sg10
g4740
sg11
I2
sg12
(dp4744
g14
(lp4745
(S'/1_14.png:norm'
p4746
g31
F1301844707.0
tp4747
a(S'/2_14.png:norm'
p4748
g17
F1301844707.0
tp4749
a(S'/3_14.png:norm'
p4750
g31
F1301844707.0
tp4751
a(S'/4_14.png:norm'
p4752
g178
F1301844707.0
tp4753
a(S'/5_14.png:norm'
p4754
g17
F1301844707.0
tp4755
a(S'/6_14.png:norm'
p4756
g20
F1301844707.0
tp4757
a(S'/7_14.png:norm'
p4758
g187
F1301844707.0
tp4759
a(S'/8_14.png:norm'
p4760
g20
F1301844707.0
tp4761
a(S'/9_14.png:gold'
p4762
g17
F1301844707.0
tp4763
a(S'/1_8.png:norm'
p4764
g20
F1301845060.0
tp4765
a(S'/2_8.png:norm'
p4766
g31
F1301845060.0
tp4767
a(S'/3_8.png:norm'
p4768
g31
F1301845060.0
tp4769
a(S'/4_8.png:norm'
p4770
g20
F1301845060.0
tp4771
a(S'/5_8.png:norm'
p4772
g20
F1301845060.0
tp4773
a(S'/6_8.png:norm'
p4774
g31
F1301845060.0
tp4775
a(S'/7_8.png:norm'
p4776
g20
F1301845060.0
tp4777
a(S'/8_8.png:norm'
p4778
g68
F1301845060.0
tp4779
a(S'/9_8.png:gold'
p4780
g31
F1301845060.0
tp4781
assbsS'A24NT7X1P9ATE5'
p4782
g2
(g3
g4
Ntp4783
Rp4784
(dp4785
g8
I0
sg9
I00
sg10
g4782
sg11
I1
sg12
(dp4786
g14
(lp4787
(S'/1_5.png:norm'
p4788
g79
F1301763016.0
tp4789
a(S'/2_5.png:norm'
p4790
g20
F1301763016.0
tp4791
a(S'/3_5.png:norm'
p4792
g79
F1301763016.0
tp4793
a(S'/4_5.png:norm'
p4794
g20
F1301763016.0
tp4795
a(S'/5_5.png:norm'
p4796
g20
F1301763016.0
tp4797
a(S'/6_5.png:norm'
p4798
g20
F1301763016.0
tp4799
a(S'/7_5.png:norm'
p4800
g68
F1301763016.0
tp4801
a(S'/8_5.png:norm'
p4802
g20
F1301763016.0
tp4803
a(S'/9_5.png:gold'
p4804
g20
F1301763016.0
tp4805
assbsS'A8OLIEAMRS7T2'
p4806
g2
(g3
g4
Ntp4807
Rp4808
(dp4809
g8
I0
sg9
I00
sg10
g4806
sg11
I5
sg12
(dp4810
g14
(lp4811
(S'/4_11.png:norm'
p4812
g68
F1301785547.0
tp4813
a(S'/5_11.png:norm'
p4814
g68
F1301785547.0
tp4815
a(S'/6_11.png:norm'
p4816
g20
F1301785547.0
tp4817
a(S'/7_11.png:norm'
p4818
g68
F1301785547.0
tp4819
a(S'/8_11.png:norm'
p4820
g17
F1301785547.0
tp4821
a(S'/9_11.png:gold'
p4822
g79
F1301785547.0
tp4823
a(S'/1_3.png:norm'
p4824
g68
F1301785849.0
tp4825
a(S'/2_3.png:norm'
p4826
g68
F1301785849.0
tp4827
a(S'/3_3.png:norm'
p4828
g20
F1301785849.0
tp4829
a(S'/4_3.png:norm'
p4830
g20
F1301785849.0
tp4831
a(S'/5_3.png:norm'
p4832
g20
F1301785849.0
tp4833
a(S'/6_3.png:norm'
p4834
g20
F1301785849.0
tp4835
a(S'/7_3.png:norm'
p4836
g20
F1301785849.0
tp4837
a(S'/8_3.png:norm'
p4838
g20
F1301785849.0
tp4839
a(S'/9_3.png:gold'
p4840
g20
F1301785849.0
tp4841
a(S'/1_4.png:norm'
p4842
g31
F1301785684.0
tp4843
a(S'/2_4.png:norm'
p4844
g31
F1301785684.0
tp4845
a(S'/3_4.png:norm'
p4846
g20
F1301785684.0
tp4847
a(S'/4_4.png:norm'
p4848
g31
F1301785684.0
tp4849
a(S'/5_4.png:norm'
p4850
g20
F1301785684.0
tp4851
a(S'/6_4.png:norm'
p4852
g20
F1301785684.0
tp4853
a(S'/7_4.png:norm'
p4854
g31
F1301785684.0
tp4855
a(S'/8_4.png:norm'
p4856
g20
F1301785684.0
tp4857
a(S'/9_4.png:gold'
p4858
g20
F1301785684.0
tp4859
a(S'/1_6.png:norm'
p4860
g20
F1301785802.0
tp4861
a(S'/2_6.png:norm'
p4862
g68
F1301785802.0
tp4863
a(S'/3_6.png:norm'
p4864
g68
F1301785802.0
tp4865
a(S'/4_6.png:norm'
p4866
g68
F1301785802.0
tp4867
a(S'/5_6.png:norm'
p4868
g68
F1301785802.0
tp4869
a(S'/6_6.png:norm'
p4870
g20
F1301785802.0
tp4871
a(S'/7_6.png:norm'
p4872
g20
F1301785802.0
tp4873
a(S'/8_6.png:norm'
p4874
g20
F1301785802.0
tp4875
a(S'/9_6.png:gold'
p4876
g20
F1301785802.0
tp4877
a(S'/1_9.png:norm'
p4878
g20
F1301785760.0
tp4879
a(S'/2_9.png:norm'
p4880
g31
F1301785760.0
tp4881
a(S'/3_9.png:norm'
p4882
g20
F1301785760.0
tp4883
a(S'/4_9.png:norm'
p4884
g20
F1301785760.0
tp4885
a(S'/5_9.png:norm'
p4886
g31
F1301785760.0
tp4887
a(S'/6_9.png:norm'
p4888
g31
F1301785760.0
tp4889
a(S'/7_9.png:norm'
p4890
g79
F1301785760.0
tp4891
a(S'/8_9.png:norm'
p4892
g20
F1301785760.0
tp4893
a(S'/9_9.png:gold'
p4894
g20
F1301785760.0
tp4895
assbsS'A11GBTHURYJB4J'
p4896
g2
(g3
g4
Ntp4897
Rp4898
(dp4899
g8
I0
sg9
I00
sg10
g4896
sg11
I3
sg12
(dp4900
g14
(lp4901
(S'/4_12.png:norm'
p4902
g31
F1301811265.0
tp4903
a(S'/5_12.png:norm'
p4904
g31
F1301811265.0
tp4905
a(S'/6_12.png:norm'
p4906
g20
F1301811265.0
tp4907
a(S'/7_12.png:norm'
p4908
g31
F1301811265.0
tp4909
a(S'/8_12.png:norm'
p4910
g31
F1301811265.0
tp4911
a(S'/9_12.png:gold'
p4912
g17
F1301811265.0
tp4913
a(S'/1_1.png:norm'
p4914
g20
F1301810806.0
tp4915
a(S'/2_1.png:norm'
p4916
g20
F1301810806.0
tp4917
a(S'/3_1.png:norm'
p4918
g20
F1301810806.0
tp4919
a(S'/4_1.png:norm'
p4920
g20
F1301810806.0
tp4921
a(S'/5_1.png:norm'
p4922
g20
F1301810806.0
tp4923
a(S'/6_1.png:norm'
p4924
g20
F1301810806.0
tp4925
a(S'/7_1.png:norm'
p4926
g20
F1301810806.0
tp4927
a(S'/8_1.png:norm'
p4928
g20
F1301810806.0
tp4929
a(S'/9_1.png:gold'
p4930
g20
F1301810806.0
tp4931
a(S'/1_2.png:norm'
p4932
g31
F1301810332.0
tp4933
a(S'/2_2.png:norm'
p4934
g20
F1301810332.0
tp4935
a(S'/3_2.png:norm'
p4936
g20
F1301810332.0
tp4937
a(S'/4_2.png:norm'
p4938
g20
F1301810332.0
tp4939
a(S'/5_2.png:norm'
p4940
g20
F1301810332.0
tp4941
a(S'/6_2.png:norm'
p4942
g20
F1301810332.0
tp4943
a(S'/7_2.png:norm'
p4944
g31
F1301810332.0
tp4945
a(S'/8_2.png:norm'
p4946
g20
F1301810332.0
tp4947
a(S'/9_2.png:gold'
p4948
g20
F1301810332.0
tp4949
a(S'/1_7.png:norm'
p4950
g31
F1301811664.0
tp4951
a(S'/2_7.png:norm'
p4952
g20
F1301811664.0
tp4953
a(S'/3_7.png:norm'
p4954
g31
F1301811664.0
tp4955
a(S'/4_7.png:norm'
p4956
g31
F1301811664.0
tp4957
a(S'/5_7.png:norm'
p4958
g31
F1301811664.0
tp4959
a(S'/6_7.png:norm'
p4960
g31
F1301811664.0
tp4961
a(S'/7_7.png:norm'
p4962
g17
F1301811664.0
tp4963
a(S'/8_7.png:norm'
p4964
g31
F1301811664.0
tp4965
a(S'/9_7.png:gold'
p4966
g31
F1301811664.0
tp4967
assbs.