(dp0
csip
_unpickle_type
p1
(S'PyQt4.QtCore'
p2
S'QString'
p3
(Vrr
p4
tp5
tp6
Rp7
ccopy_reg
_reconstructor
p8
(cumati.UmatiUserDirectory
User
p9
c__builtin__
object
p10
Ntp11
Rp12
(dp13
S'_User__credits'
p14
I118
sS'init_done'
p15
I01
sS'tag'
p16
g7
sS'gold_wrong'
p17
I0
sS'tasks_completed'
p18
(dp19
S'Linear_Survey'
p20
(lp21
(VIntro2
p22
S'[0, 0, 0, 0, 0, 0, 0, 0, 0, 0, 0]'
p23
F1301627243.0953159
tp24
asS'Grading'
p25
(lp26
(V6:file:///home/kheimerl/src/UMATI_DATA_SP2011/61b_official/9/9_6.png:gold
p27
S'4'
p28
F1301627247.8199961
tp29
a(V6:file:///home/kheimerl/src/UMATI_DATA_SP2011/61b_official/8/8_6.png:norm
p30
g28
F1301627249.7245491
tp31
a(V6:file:///home/kheimerl/src/UMATI_DATA_SP2011/61b_official/4/4_6.png:norm
p32
S'2'
p33
F1301627274.086483
tp34
a(V6:file:///home/kheimerl/src/UMATI_DATA_SP2011/61b_official/5/5_6.png:norm
p35
S'0'
p36
F1301627279.512182
tp37
a(V6:file:///home/kheimerl/src/UMATI_DATA_SP2011/61b_official/3/3_6.png:norm
p38
g28
F1301627281.6632881
tp39
a(V6:file:///home/kheimerl/src/UMATI_DATA_SP2011/61b_official/7/7_6.png:norm
p40
g28
F1301627284.6336689
tp41
a(V6:file:///home/kheimerl/src/UMATI_DATA_SP2011/61b_official/1/1_6.png:norm
p42
g33
F1301627288.4356649
tp43
a(V6:file:///home/kheimerl/src/UMATI_DATA_SP2011/61b_official/2/2_6.png:norm
p44
g36
F1301627289.9264009
tp45
a(V6:file:///home/kheimerl/src/UMATI_DATA_SP2011/61b_official/6/6_6.png:norm
p46
g28
F1301627292.02122
tp47
a(V9:file:///home/kheimerl/src/UMATI_DATA_SP2011/61b_official/9/9_9.png:gold
p48
g28
F1301627295.684895
tp49
a(V9:file:///home/kheimerl/src/UMATI_DATA_SP2011/61b_official/4/4_9.png:norm
p50
g36
F1301627311.0428851
tp51
a(V9:file:///home/kheimerl/src/UMATI_DATA_SP2011/61b_official/3/3_9.png:norm
p52
g28
F1301627314.4824769
tp53
a(V9:file:///home/kheimerl/src/UMATI_DATA_SP2011/61b_official/8/8_9.png:norm
p54
g36
F1301627317.2999711
tp55
a(V9:file:///home/kheimerl/src/UMATI_DATA_SP2011/61b_official/6/6_9.png:norm
p56
g28
F1301627319.23052
tp57
a(V9:file:///home/kheimerl/src/UMATI_DATA_SP2011/61b_official/7/7_9.png:norm
p58
g36
F1301627322.1965339
tp59
a(V9:file:///home/kheimerl/src/UMATI_DATA_SP2011/61b_official/2/2_9.png:norm
p60
g28
F1301627324.2294309
tp61
a(V9:file:///home/kheimerl/src/UMATI_DATA_SP2011/61b_official/1/1_9.png:norm
p62
g33
F1301627327.6689601
tp63
a(V9:file:///home/kheimerl/src/UMATI_DATA_SP2011/61b_official/5/5_9.png:norm
p64
g36
F1301627331.7079849
tp65
a(V5:file:///home/kheimerl/src/UMATI_DATA_SP2011/61b_official/9/9_5.png:gold
p66
g28
F1301627338.8377781
tp67
a(V5:file:///home/kheimerl/src/UMATI_DATA_SP2011/61b_official/4/4_5.png:norm
p68
g28
F1301627342.79038
tp69
a(V5:file:///home/kheimerl/src/UMATI_DATA_SP2011/61b_official/3/3_5.png:norm
p70
g28
F1301627359.484606
tp71
a(V5:file:///home/kheimerl/src/UMATI_DATA_SP2011/61b_official/5/5_5.png:norm
p72
S'3'
p73
F1301627386.02052
tp74
a(V5:file:///home/kheimerl/src/UMATI_DATA_SP2011/61b_official/1/1_5.png:norm
p75
g36
F1301627393.552767
tp76
a(V5:file:///home/kheimerl/src/UMATI_DATA_SP2011/61b_official/2/2_5.png:norm
p77
g28
F1301627397.026417
tp78
a(V5:file:///home/kheimerl/src/UMATI_DATA_SP2011/61b_official/6/6_5.png:norm
p79
g36
F1301627400.2907109
tp80
a(V5:file:///home/kheimerl/src/UMATI_DATA_SP2011/61b_official/7/7_5.png:norm
p81
g28
F1301627426.7613921
tp82
a(V5:file:///home/kheimerl/src/UMATI_DATA_SP2011/61b_official/8/8_5.png:norm
p83
g28
F1301627429.641746
tp84
a(V3:file:///home/kheimerl/src/UMATI_DATA_SP2011/61b_official/9/9_3.png:gold
p85
g28
F1301627432.9310889
tp86
a(V3:file:///home/kheimerl/src/UMATI_DATA_SP2011/61b_official/8/8_3.png:norm
p87
S'1'
p88
F1301627438.9586821
tp89
a(V3:file:///home/kheimerl/src/UMATI_DATA_SP2011/61b_official/7/7_3.png:norm
p90
g88
F1301627447.2904661
tp91
a(V3:file:///home/kheimerl/src/UMATI_DATA_SP2011/61b_official/5/5_3.png:norm
p92
g28
F1301627449.987572
tp93
a(V3:file:///home/kheimerl/src/UMATI_DATA_SP2011/61b_official/6/6_3.png:norm
p94
g28
F1301627453.914988
tp95
a(V3:file:///home/kheimerl/src/UMATI_DATA_SP2011/61b_official/2/2_3.png:norm
p96
g88
F1301627456.839493
tp97
a(V3:file:///home/kheimerl/src/UMATI_DATA_SP2011/61b_official/3/3_3.png:norm
p98
g88
F1301627460.266449
tp99
a(V3:file:///home/kheimerl/src/UMATI_DATA_SP2011/61b_official/4/4_3.png:norm
p100
g33
F1301627464.853199
tp101
a(V3:file:///home/kheimerl/src/UMATI_DATA_SP2011/61b_official/1/1_3.png:norm
p102
g33
F1301627470.3503411
tp103
a(V7:file:///home/kheimerl/src/UMATI_DATA_SP2011/61b_official/9/9_7.png:gold
p104
g28
F1301627473.520786
tp105
a(V7:file:///home/kheimerl/src/UMATI_DATA_SP2011/61b_official/6/6_7.png:norm
p106
g28
F1301627475.4846449
tp107
a(V7:file:///home/kheimerl/src/UMATI_DATA_SP2011/61b_official/1/1_7.png:norm
p108
g33
F1301627478.8381629
tp109
a(V7:file:///home/kheimerl/src/UMATI_DATA_SP2011/61b_official/2/2_7.png:norm
p110
g28
F1301627481.734616
tp111
a(V7:file:///home/kheimerl/src/UMATI_DATA_SP2011/61b_official/4/4_7.png:norm
p112
g36
F1301627484.389317
tp113
a(V7:file:///home/kheimerl/src/UMATI_DATA_SP2011/61b_official/8/8_7.png:norm
p114
g73
F1301627493.3219841
tp115
a(V7:file:///home/kheimerl/src/UMATI_DATA_SP2011/61b_official/3/3_7.png:norm
p116
g28
F1301627499.2836981
tp117
a(V7:file:///home/kheimerl/src/UMATI_DATA_SP2011/61b_official/7/7_7.png:norm
p118
g28
F1301627501.908504
tp119
a(V7:file:///home/kheimerl/src/UMATI_DATA_SP2011/61b_official/5/5_7.png:norm
p120
g33
F1301627505.0123589
tp121
a(V12:file:///home/kheimerl/src/UMATI_DATA_SP2011/61b_official/9/9_12.png:gold
p122
g28
F1301627509.636759
tp123
a(V12:file:///home/kheimerl/src/UMATI_DATA_SP2011/61b_official/4/4_12.png:norm
p124
g88
F1301627519.700316
tp125
a(V12:file:///home/kheimerl/src/UMATI_DATA_SP2011/61b_official/7/7_12.png:norm
p126
g73
F1301627641.5895009
tp127
a(V12:file:///home/kheimerl/src/UMATI_DATA_SP2011/61b_official/6/6_12.png:norm
p128
g28
F1301627645.083451
tp129
a(V12:file:///home/kheimerl/src/UMATI_DATA_SP2011/61b_official/8/8_12.png:norm
p130
g36
F1301627648.3607481
tp131
a(V12:file:///home/kheimerl/src/UMATI_DATA_SP2011/61b_official/5/5_12.png:norm
p132
g36
F1301627650.6541009
tp133
a(V13:file:///home/kheimerl/src/UMATI_DATA_SP2011/61b_official/9/9_13.png:gold
p134
g28
F1301627655.0159099
tp135
a(V13:file:///home/kheimerl/src/UMATI_DATA_SP2011/61b_official/8/8_13.png:norm
p136
g28
F1301627695.2168729
tp137
a(V13:file:///home/kheimerl/src/UMATI_DATA_SP2011/61b_official/6/6_13.png:norm
p138
g28
F1301627716.680135
tp139
a(V13:file:///home/kheimerl/src/UMATI_DATA_SP2011/61b_official/4/4_13.png:norm
p140
g36
F1301627736.3081701
tp141
a(V13:file:///home/kheimerl/src/UMATI_DATA_SP2011/61b_official/5/5_13.png:norm
p142
g28
F1301627743.893976
tp143
a(V13:file:///home/kheimerl/src/UMATI_DATA_SP2011/61b_official/7/7_13.png:norm
p144
g36
F1301627753.35267
tp145
a(V10:file:///home/kheimerl/src/UMATI_DATA_SP2011/61b_official/9/9_10.png:gold
p146
g28
F1301627757.1474471
tp147
a(V10:file:///home/kheimerl/src/UMATI_DATA_SP2011/61b_official/4/4_10.png:norm
p148
g28
F1301627759.836477
tp149
a(V10:file:///home/kheimerl/src/UMATI_DATA_SP2011/61b_official/7/7_10.png:norm
p150
g36
F1301627762.2160261
tp151
a(V10:file:///home/kheimerl/src/UMATI_DATA_SP2011/61b_official/6/6_10.png:norm
p152
g28
F1301627768.1227081
tp153
a(V10:file:///home/kheimerl/src/UMATI_DATA_SP2011/61b_official/5/5_10.png:norm
p154
g73
F1301627777.0717821
tp155
a(V10:file:///home/kheimerl/src/UMATI_DATA_SP2011/61b_official/8/8_10.png:norm
p156
g88
F1301627783.275748
tp157
a(V14:file:///home/kheimerl/src/UMATI_DATA_SP2011/61b_official/9/9_14.png:gold
p158
S'10'
p159
F1301627799.5655739
tp160
a(V2:file:///home/kheimerl/src/UMATI_DATA_SP2011/61b_official/9/9_2.png:gold
p161
g28
F1301627913.7191119
tp162
a(V2:file:///home/kheimerl/src/UMATI_DATA_SP2011/61b_official/7/7_2.png:norm
p163
g28
F1301627925.4087291
tp164
a(V2:file:///home/kheimerl/src/UMATI_DATA_SP2011/61b_official/6/6_2.png:norm
p165
g33
F1301627947.1965821
tp166
a(V2:file:///home/kheimerl/src/UMATI_DATA_SP2011/61b_official/1/1_2.png:norm
p167
g36
F1301627953.8144231
tp168
a(V2:file:///home/kheimerl/src/UMATI_DATA_SP2011/61b_official/2/2_2.png:norm
p169
g28
F1301627965.401669
tp170
a(V2:file:///home/kheimerl/src/UMATI_DATA_SP2011/61b_official/5/5_2.png:norm
p171
g28
F1301628004.617609
tp172
a(V2:file:///home/kheimerl/src/UMATI_DATA_SP2011/61b_official/3/3_2.png:norm
p173
g73
F1301628023.612942
tp174
a(V2:file:///home/kheimerl/src/UMATI_DATA_SP2011/61b_official/8/8_2.png:norm
p175
g28
F1301628031.738482
tp176
a(V2:file:///home/kheimerl/src/UMATI_DATA_SP2011/61b_official/4/4_2.png:norm
p177
g88
F1301628039.0297661
tp178
a(V4:file:///home/kheimerl/src/UMATI_DATA_SP2011/61b_official/9/9_4.png:gold
p179
g28
F1301628049.4814279
tp180
a(V4:file:///home/kheimerl/src/UMATI_DATA_SP2011/61b_official/7/7_4.png:norm
p181
g88
F1301628137.572902
tp182
a(V4:file:///home/kheimerl/src/UMATI_DATA_SP2011/61b_official/2/2_4.png:norm
p183
g36
F1301628146.0450389
tp184
a(V4:file:///home/kheimerl/src/UMATI_DATA_SP2011/61b_official/6/6_4.png:norm
p185
g28
F1301628168.122195
tp186
a(V4:file:///home/kheimerl/src/UMATI_DATA_SP2011/61b_official/8/8_4.png:norm
p187
g33
F1301628182.3579609
tp188
a(V4:file:///home/kheimerl/src/UMATI_DATA_SP2011/61b_official/3/3_4.png:norm
p189
g28
F1301628186.3144989
tp190
a(V4:file:///home/kheimerl/src/UMATI_DATA_SP2011/61b_official/5/5_4.png:norm
p191
g36
F1301628192.5476661
tp192
a(V4:file:///home/kheimerl/src/UMATI_DATA_SP2011/61b_official/1/1_4.png:norm
p193
g33
F1301628208.0995171
tp194
a(V4:file:///home/kheimerl/src/UMATI_DATA_SP2011/61b_official/4/4_4.png:norm
p195
g36
F1301628211.6402791
tp196
a(V8:file:///home/kheimerl/src/UMATI_DATA_SP2011/61b_official/9/9_8.png:gold
p197
g28
F1301628217.5402949
tp198
a(V8:file:///home/kheimerl/src/UMATI_DATA_SP2011/61b_official/3/3_8.png:norm
p199
g73
F1301628245.5540731
tp200
a(V8:file:///home/kheimerl/src/UMATI_DATA_SP2011/61b_official/5/5_8.png:norm
p201
g36
F1301628247.0459199
tp202
a(V8:file:///home/kheimerl/src/UMATI_DATA_SP2011/61b_official/7/7_8.png:norm
p203
g36
F1301628247.9558339
tp204
a(V8:file:///home/kheimerl/src/UMATI_DATA_SP2011/61b_official/6/6_8.png:norm
p205
g33
F1301628253.553272
tp206
a(V8:file:///home/kheimerl/src/UMATI_DATA_SP2011/61b_official/4/4_8.png:norm
p207
g33
F1301628258.164623
tp208
a(V8:file:///home/kheimerl/src/UMATI_DATA_SP2011/61b_official/2/2_8.png:norm
p209
g28
F1301628262.270246
tp210
a(V8:file:///home/kheimerl/src/UMATI_DATA_SP2011/61b_official/8/8_8.png:norm
p211
g33
F1301628266.4184239
tp212
a(V8:file:///home/kheimerl/src/UMATI_DATA_SP2011/61b_official/1/1_8.png:norm
p213
g36
F1301628267.7900989
tp214
a(V1:file:///home/kheimerl/src/UMATI_DATA_SP2011/61b_official/9/9_1.png:gold
p215
g28
F1301628277.8129671
tp216
a(V1:file:///home/kheimerl/src/UMATI_DATA_SP2011/61b_official/8/8_1.png:norm
p217
g73
F1301628293.099741
tp218
a(V1:file:///home/kheimerl/src/UMATI_DATA_SP2011/61b_official/6/6_1.png:norm
p219
g36
F1301628370.538058
tp220
a(V1:file:///home/kheimerl/src/UMATI_DATA_SP2011/61b_official/3/3_1.png:norm
p221
g36
F1301628371.822824
tp222
a(V1:file:///home/kheimerl/src/UMATI_DATA_SP2011/61b_official/7/7_1.png:norm
p223
g73
F1301628381.4622149
tp224
a(V1:file:///home/kheimerl/src/UMATI_DATA_SP2011/61b_official/4/4_1.png:norm
p225
g36
F1301628386.425998
tp226
a(V1:file:///home/kheimerl/src/UMATI_DATA_SP2011/61b_official/2/2_1.png:norm
p227
g73
F1301628404.956295
tp228
a(V1:file:///home/kheimerl/src/UMATI_DATA_SP2011/61b_official/1/1_1.png:norm
p229
g36
F1301628406.364042
tp230
a(V1:file:///home/kheimerl/src/UMATI_DATA_SP2011/61b_official/5/5_1.png:norm
p231
g36
F1301628407.9894459
tp232
a(V11:file:///home/kheimerl/src/UMATI_DATA_SP2011/61b_official/9/9_11.png:gold
p233
g28
F1301628412.3981791
tp234
a(V11:file:///home/kheimerl/src/UMATI_DATA_SP2011/61b_official/5/5_11.png:norm
p235
g28
F1301628436.6619451
tp236
a(V11:file:///home/kheimerl/src/UMATI_DATA_SP2011/61b_official/7/7_11.png:norm
p237
g28
F1301628450.207267
tp238
a(V11:file:///home/kheimerl/src/UMATI_DATA_SP2011/61b_official/4/4_11.png:norm
p239
g36
F1301628452.8740981
tp240
a(V11:file:///home/kheimerl/src/UMATI_DATA_SP2011/61b_official/6/6_11.png:norm
p241
g28
F1301628455.7924941
tp242
a(V11:file:///home/kheimerl/src/UMATI_DATA_SP2011/61b_official/8/8_11.png:norm
p243
g73
F1301628460.0553589
tp244
a(V14:file:///home/kheimerl/src/UMATI_DATA_SP2011/61b_official/8/8_14.png:norm
p245
g36
F1301628466.4124031
tp246
a(V14:file:///home/kheimerl/src/UMATI_DATA_SP2011/61b_official/5/5_14.png:norm
p247
g36
F1301628468.5327189
tp248
a(V14:file:///home/kheimerl/src/UMATI_DATA_SP2011/61b_official/3/3_14.png:norm
p249
g33
F1301628717.7413001
tp250
a(V14:file:///home/kheimerl/src/UMATI_DATA_SP2011/61b_official/1/1_14.png:norm
p251
g33
F1301628803.4982581
tp252
a(V14:file:///home/kheimerl/src/UMATI_DATA_SP2011/61b_official/2/2_14.png:norm
p253
g33
F1301628912.5954139
tp254
a(V14:file:///home/kheimerl/src/UMATI_DATA_SP2011/61b_official/6/6_14.png:norm
p255
S'10'
p256
F1301630343.456908
tp257
a(V14:file:///home/kheimerl/src/UMATI_DATA_SP2011/61b_official/7/7_14.png:norm
p258
S'2'
p259
F1301630500.5244329
tp260
assbs.